
AVRASM ver. 1.52  main.asm Sat Nov 07 14:43:13 2015


         ;CodeVisionAVR C Compiler V1.24.1d Standard
         ;(C) Copyright 1998-2004 Pavel Haiduc, HP InfoTech s.r.l.
         ;http://www.hpinfotech.ro
         ;e-mail:office@hpinfotech.ro
         
         ;Chip type           : ATtiny13
         ;Clock frequency     : 0,128000 MHz
         ;Memory model        : Tiny
         ;Optimize for        : Size
         ;(s)printf features  : int, width
         ;(s)scanf features   : long, width
         ;External SRAM size  : 0
         ;Data Stack size     : 16 byte(s)
         ;Heap size           : 0 byte(s)
         ;Promote char to int : No
         ;char is unsigned    : Yes
         ;8 bit enums         : Yes
         ;Automatic register allocation : On
         
          	.EQU EERE=0x0
          	.EQU EEWE=0x1
          	.EQU EEMWE=0x2
          	.EQU EECR=0x1C
          	.EQU EEDR=0x1D
          	.EQU EEARL=0x1E
          	.EQU WDTCR=0x21
          	.EQU MCUSR=0x34
          	.EQU MCUCR=0x35
          	.EQU SPL=0x3D
          	.EQU SREG=0x3F
         
          	.DEF R0X0=R0
          	.DEF R0X1=R1
          	.DEF R0X2=R2
          	.DEF R0X3=R3
          	.DEF R0X4=R4
          	.DEF R0X5=R5
          	.DEF R0X6=R6
          	.DEF R0X7=R7
          	.DEF R0X8=R8
          	.DEF R0X9=R9
          	.DEF R0XA=R10
          	.DEF R0XB=R11
          	.DEF R0XC=R12
          	.DEF R0XD=R13
          	.DEF R0XE=R14
          	.DEF R0XF=R15
          	.DEF R0X10=R16
          	.DEF R0X11=R17
          	.DEF R0X12=R18
          	.DEF R0X13=R19
          	.DEF R0X14=R20
          	.DEF R0X15=R21
          	.DEF R0X16=R22
          	.DEF R0X17=R23
          	.DEF R0X18=R24
          	.DEF R0X19=R25
          	.DEF R0X1A=R26
          	.DEF R0X1B=R27
          	.DEF R0X1C=R28
          	.DEF R0X1D=R29
          	.DEF R0X1E=R30
          	.DEF R0X1F=R31
         
          	.EQU __se_bit=0x20
          	.EQU __sm_mask=0x18
          	.EQU __sm_adc_noise_red=0x08
          	.EQU __sm_powerdown=0x10
         
          	.MACRO __CPD1N
          	CPI  R30,LOW(@0)
          	LDI  R26,HIGH(@0)
          	CPC  R31,R26
          	LDI  R26,BYTE3(@0)
          	CPC  R22,R26
          	LDI  R26,BYTE4(@0)
          	CPC  R23,R26
          	.ENDM
         
          	.MACRO __CPD2N
          	CPI  R26,LOW(@0)
          	LDI  R30,HIGH(@0)
          	CPC  R27,R30
          	LDI  R30,BYTE3(@0)
          	CPC  R24,R30
          	LDI  R30,BYTE4(@0)
          	CPC  R25,R30
          	.ENDM
         
          	.MACRO __CPWRR
          	CP   R@0,R@2
          	CPC  R@1,R@3
          	.ENDM
         
          	.MACRO __CPWRN
          	CPI  R@0,LOW(@2)
          	LDI  R30,HIGH(@2)
          	CPC  R@1,R30
          	.ENDM
         
          	.MACRO __ADDD1N
          	SUBI R30,LOW(-@0)
          	SBCI R31,HIGH(-@0)
          	SBCI R22,BYTE3(-@0)
          	SBCI R23,BYTE4(-@0)
          	.ENDM
         
          	.MACRO __ADDD2N
          	SUBI R26,LOW(-@0)
          	SBCI R27,HIGH(-@0)
          	SBCI R24,BYTE3(-@0)
          	SBCI R25,BYTE4(-@0)
          	.ENDM
         
          	.MACRO __SUBD1N
          	SUBI R30,LOW(@0)
          	SBCI R31,HIGH(@0)
          	SBCI R22,BYTE3(@0)
          	SBCI R23,BYTE4(@0)
          	.ENDM
         
          	.MACRO __SUBD2N
          	SUBI R26,LOW(@0)
          	SBCI R27,HIGH(@0)
          	SBCI R24,BYTE3(@0)
          	SBCI R25,BYTE4(@0)
          	.ENDM
         
          	.MACRO __ANDD1N
          	ANDI R30,LOW(@0)
          	ANDI R31,HIGH(@0)
          	ANDI R22,BYTE3(@0)
          	ANDI R23,BYTE4(@0)
          	.ENDM
         
          	.MACRO __ORD1N
          	ORI  R30,LOW(@0)
          	ORI  R31,HIGH(@0)
          	ORI  R22,BYTE3(@0)
          	ORI  R23,BYTE4(@0)
          	.ENDM
         
          	.MACRO __DELAY_USB
          	LDI  R24,LOW(@0)
          __DELAY_USB_LOOP:
          	DEC  R24
          	BRNE __DELAY_USB_LOOP
          	.ENDM
         
          	.MACRO __DELAY_USW
          	LDI  R24,LOW(@0)
          	LDI  R25,HIGH(@0)
          __DELAY_USW_LOOP:
          	SBIW R24,1
          	BRNE __DELAY_USW_LOOP
          	.ENDM
         
          	.MACRO __CLRD1S
          	LDI  R30,0
          	STD  Y+@0,R30
          	STD  Y+@0+1,R30
          	STD  Y+@0+2,R30
          	STD  Y+@0+3,R30
          	.ENDM
         
          	.MACRO __GETD1S
          	LDD  R30,Y+@0
          	LDD  R31,Y+@0+1
          	LDD  R22,Y+@0+2
          	LDD  R23,Y+@0+3
          	.ENDM
         
          	.MACRO __PUTD1S
          	STD  Y+@0,R30
          	STD  Y+@0+1,R31
          	STD  Y+@0+2,R22
          	STD  Y+@0+3,R23
          	.ENDM
         
          	.MACRO __POINTB1MN
          	LDI  R30,LOW(@0+@1)
          	.ENDM
         
          	.MACRO __POINTW1MN
          	LDI  R30,LOW(@0+@1)
          	LDI  R31,HIGH(@0+@1)
          	.ENDM
         
          	.MACRO __POINTW1FN
          	LDI  R30,LOW(2*@0+@1)
          	LDI  R31,HIGH(2*@0+@1)
          	.ENDM
         
          	.MACRO __POINTB2MN
          	LDI  R26,LOW(@0+@1)
          	.ENDM
         
          	.MACRO __POINTW2MN
          	LDI  R26,LOW(@0+@1)
          	LDI  R27,HIGH(@0+@1)
          	.ENDM
         
          	.MACRO __POINTBRM
          	LDI  R@0,LOW(@1)
          	.ENDM
         
          	.MACRO __POINTWRM
          	LDI  R@0,LOW(@2)
          	LDI  R@1,HIGH(@2)
          	.ENDM
         
          	.MACRO __POINTBRMN
          	LDI  R@0,LOW(@1+@2)
          	.ENDM
         
          	.MACRO __POINTWRMN
          	LDI  R@0,LOW(@2+@3)
          	LDI  R@1,HIGH(@2+@3)
          	.ENDM
         
          	.MACRO __GETD1N
          	LDI  R30,LOW(@0)
          	LDI  R31,HIGH(@0)
          	LDI  R22,BYTE3(@0)
          	LDI  R23,BYTE4(@0)
          	.ENDM
         
          	.MACRO __GETD2N
          	LDI  R26,LOW(@0)
          	LDI  R27,HIGH(@0)
          	LDI  R24,BYTE3(@0)
          	LDI  R25,BYTE4(@0)
          	.ENDM
         
          	.MACRO __GETD2S
          	LDD  R26,Y+@0
          	LDD  R27,Y+@0+1
          	LDD  R24,Y+@0+2
          	LDD  R25,Y+@0+3
          	.ENDM
         
          	.MACRO __GETB1MN
          	LDS  R30,@0+@1
          	.ENDM
         
          	.MACRO __GETW1MN
          	LDS  R30,@0+@1
          	LDS  R31,@0+@1+1
          	.ENDM
         
          	.MACRO __GETD1MN
          	LDS  R30,@0+@1
          	LDS  R31,@0+@1+1
          	LDS  R22,@0+@1+2
          	LDS  R23,@0+@1+3
          	.ENDM
         
          	.MACRO __GETBRMN
          	LDS  R@2,@0+@1
          	.ENDM
         
          	.MACRO __GETWRMN
          	LDS  R@2,@0+@1
          	LDS  R@3,@0+@1+1
          	.ENDM
         
          	.MACRO __GETB2MN
          	LDS  R26,@0+@1
          	.ENDM
         
          	.MACRO __GETW2MN
          	LDS  R26,@0+@1
          	LDS  R27,@0+@1+1
          	.ENDM
         
          	.MACRO __GETD2MN
          	LDS  R26,@0+@1
          	LDS  R27,@0+@1+1
          	LDS  R24,@0+@1+2
          	LDS  R25,@0+@1+3
          	.ENDM
         
          	.MACRO __PUTB1MN
          	STS  @0+@1,R30
          	.ENDM
         
          	.MACRO __PUTW1MN
          	STS  @0+@1,R30
          	STS  @0+@1+1,R31
          	.ENDM
         
          	.MACRO __PUTD1MN
          	STS  @0+@1,R30
          	STS  @0+@1+1,R31
          	STS  @0+@1+2,R22
          	STS  @0+@1+3,R23
          	.ENDM
         
          	.MACRO __PUTBMRN
          	STS  @0+@1,R@2
          	.ENDM
         
          	.MACRO __PUTWMRN
          	STS  @0+@1,R@2
          	STS  @0+@1+1,R@3
          	.ENDM
         
          	.MACRO __GETW1R
          	MOV  R30,R@0
          	MOV  R31,R@1
          	.ENDM
         
          	.MACRO __GETW2R
          	MOV  R26,R@0
          	MOV  R27,R@1
          	.ENDM
         
          	.MACRO __GETWRN
          	LDI  R@0,LOW(@2)
          	LDI  R@1,HIGH(@2)
          	.ENDM
         
          	.MACRO __PUTW1R
          	MOV  R@0,R30
          	MOV  R@1,R31
          	.ENDM
         
          	.MACRO __PUTW2R
          	MOV  R@0,R26
          	MOV  R@1,R27
          	.ENDM
         
          	.MACRO __ADDWRN
          	SUBI R@0,LOW(-@2)
          	SBCI R@1,HIGH(-@2)
          	.ENDM
         
          	.MACRO __ADDWRR
          	ADD  R@0,R@2
          	ADC  R@1,R@3
          	.ENDM
         
          	.MACRO __SUBWRN
          	SUBI R@0,LOW(@2)
          	SBCI R@1,HIGH(@2)
          	.ENDM
         
          	.MACRO __SUBWRR
          	SUB  R@0,R@2
          	SBC  R@1,R@3
          	.ENDM
         
          	.MACRO __ANDWRN
          	ANDI R@0,LOW(@2)
          	ANDI R@1,HIGH(@2)
          	.ENDM
         
          	.MACRO __ANDWRR
          	AND  R@0,R@2
          	AND  R@1,R@3
          	.ENDM
         
          	.MACRO __ORWRN
          	ORI  R@0,LOW(@2)
          	ORI  R@1,HIGH(@2)
          	.ENDM
         
          	.MACRO __ORWRR
          	OR   R@0,R@2
          	OR   R@1,R@3
          	.ENDM
         
          	.MACRO __EORWRR
          	EOR  R@0,R@2
          	EOR  R@1,R@3
          	.ENDM
         
          	.MACRO __GETWRS
          	LDD  R@0,Y+@2
          	LDD  R@1,Y+@2+1
          	.ENDM
         
          	.MACRO __PUTWSR
          	STD  Y+@2,R@0
          	STD  Y+@2+1,R@1
          	.ENDM
         
          	.MACRO __MOVEWRR
          	MOV  R@0,R@2
          	MOV  R@1,R@3
          	.ENDM
         
          	.MACRO __INWR
          	IN   R@0,@2
          	IN   R@1,@2+1
          	.ENDM
         
          	.MACRO __OUTWR
          	OUT  @2+1,R@1
          	OUT  @2,R@0
          	.ENDM
         
          	.MACRO __CALL1MN
          	LDS  R30,@0+@1
          	LDS  R31,@0+@1+1
          	ICALL
          	.ENDM
         
          	.MACRO __NBST
          	BST  R@0,@1
          	IN   R30,SREG
          	LDI  R31,0x40
          	EOR  R30,R31
          	OUT  SREG,R30
          	.ENDM
         
         
          	.MACRO __PUTB1SN
          	LDD  R26,Y+@0
          	SUBI R26,-@1
          	ST   X,R30
          	.ENDM
         
          	.MACRO __PUTW1SN
          	LDD  R26,Y+@0
          	SUBI R26,-@1
          	ST   X+,R30
          	ST   X,R31
          	.ENDM
         
          	.MACRO __PUTD1SN
          	LDD  R26,Y+@0
          	SUBI R26,-@1
          	RCALL __PUTDP1
          	.ENDM
         
          	.MACRO __PUTB1SNS
          	LDD  R26,Y+@0
          	SUBI R26,-@1
          	ST   X,R30
          	.ENDM
         
          	.MACRO __PUTW1SNS
          	LDD  R26,Y+@0
          	SUBI R26,-@1
          	ST   X+,R30
          	ST   X,R31
          	.ENDM
         
          	.MACRO __PUTD1SNS
          	LDD  R26,Y+@0
          	SUBI R26,-@1
          	RCALL __PUTDP1
          	.ENDM
         
          	.MACRO __PUTB1RN
          	MOV  R26,R@0
          	SUBI R26,-@1
          	ST   X,R30
          	.ENDM
         
          	.MACRO __PUTW1RN
          	MOV  R26,R@0
          	SUBI R26,-@1
          	ST   X+,R30
          	ST   X,R31
          	.ENDM
         
          	.MACRO __PUTD1RN
          	MOV  R26,R@0
          	SUBI R26,-@1
          	RCALL __PUTDP1
          	.ENDM
         
          	.MACRO __PUTB1RNS
          	MOV  R26,R@0
          	SUBI R26,-@1
          	ST   X,R30
          	.ENDM
         
          	.MACRO __PUTW1RNS
          	MOV  R26,R@0
          	SUBI R26,-@1
          	ST   X+,R30
          	ST   X,R31
          	.ENDM
         
          	.MACRO __PUTD1RNS
          	MOV  R26,R@0
          	SUBI R26,-@1
          	RCALL __PUTDP1
          	.ENDM
         
          	.MACRO __PUTB1PMN
          	LDS  R26,@0
          	SUBI R26,-@1
          	ST   X,R30
          	.ENDM
         
          	.MACRO __PUTW1PMN
          	LDS  R26,@0
          	SUBI R26,-@1
          	ST   X+,R30
          	ST   X,R31
          	.ENDM
         
          	.MACRO __PUTD1PMN
          	LDS  R26,@0
          	SUBI R26,-@1
          	RCALL __PUTDP1
          	.ENDM
         
          	.MACRO __PUTB1PMNS
          	LDS  R26,@0
          	SUBI R26,-@1
          	ST   X,R30
          	.ENDM
         
          	.MACRO __PUTW1PMNS
          	LDS  R26,@0
          	SUBI R26,-@1
          	ST   X+,R30
          	ST   X,R31
          	.ENDM
         
          	.MACRO __PUTD1PMNS
          	LDS  R26,@0
          	SUBI R26,-@1
          	RCALL __PUTDP1
          	.ENDM
         
          	.MACRO __GETB1SX
          	MOV  R30,R28
          	MOV  R31,R29
          	SUBI R30,LOW(-@0)
          	SBCI R31,HIGH(-@0)
          	LD   R30,Z
          	.ENDM
         
          	.MACRO __GETW1SX
          	MOV  R30,R28
          	MOV  R31,R29
          	SUBI R30,LOW(-@0)
          	SBCI R31,HIGH(-@0)
          	LD   R0,Z+
          	LD   R31,Z
          	MOV  R30,R0
          	.ENDM
         
          	.MACRO __GETD1SX
          	MOV  R30,R28
          	MOV  R31,R29
          	SUBI R30,LOW(-@0)
          	SBCI R31,HIGH(-@0)
          	LD   R0,Z+
          	LD   R1,Z+
          	LD   R22,Z+
          	LD   R23,Z
          	MOV  R30,R0
          	MOV  R31,R1
          	.ENDM
         
          	.MACRO __GETB2SX
          	MOV  R26,R28
          	MOV  R27,R29
          	SUBI R26,LOW(-@0)
          	SBCI R27,HIGH(-@0)
          	LD   R26,X
          	.ENDM
         
          	.MACRO __GETW2SX
          	MOV  R26,R28
          	MOV  R27,R29
          	SUBI R26,LOW(-@0)
          	SBCI R27,HIGH(-@0)
          	LD   R0,X+
          	LD   R27,X
          	MOV  R26,R0
          	.ENDM
         
          	.MACRO __GETD2SX
          	MOV  R26,R28
          	MOV  R27,R29
          	SUBI R26,LOW(-@0)
          	SBCI R27,HIGH(-@0)
          	LD   R0,X+
          	LD   R1,X+
          	LD   R24,X+
          	LD   R25,X
          	MOV  R26,R0
          	MOV  R27,R1
          	.ENDM
         
          	.MACRO __GETBRSX
          	MOV  R30,R28
          	MOV  R31,R29
          	SUBI R30,LOW(-@1)
          	SBCI R31,HIGH(-@1)
          	LD   R@0,Z
          	.ENDM
         
          	.MACRO __GETWRSX
          	MOV  R30,R28
          	MOV  R31,R29
          	SUBI R30,LOW(-@2)
          	SBCI R31,HIGH(-@2)
          	LD   R@0,Z+
          	LD   R@1,Z
          	.ENDM
         
          	.MACRO __LSLW8SX
          	MOV  R30,R28
          	MOV  R31,R29
          	SUBI R30,LOW(-@0)
          	SBCI R31,HIGH(-@0)
          	LD   R31,Z
          	CLR  R30
          	.ENDM
         
          	.MACRO __PUTB1SX
          	MOV  R26,R28
          	MOV  R27,R29
          	SUBI R26,LOW(-@0)
          	SBCI R27,HIGH(-@0)
          	ST   X,R30
          	.ENDM
         
          	.MACRO __PUTW1SX
          	MOV  R26,R28
          	MOV  R27,R29
          	SUBI R26,LOW(-@0)
          	SBCI R27,HIGH(-@0)
          	ST   X+,R30
          	ST   X,R31
          	.ENDM
         
          	.MACRO __PUTD1SX
          	MOV  R26,R28
          	MOV  R27,R29
          	SUBI R26,LOW(-@0)
          	SBCI R27,HIGH(-@0)
          	ST   X+,R30
          	ST   X+,R31
          	ST   X+,R22
          	ST   X,R23
          	.ENDM
         
          	.MACRO __CLRW1SX
          	MOV  R30,R28
          	MOV  R31,R29
          	SUBI R30,LOW(-@0)
          	SBCI R31,HIGH(-@0)
          	CLR  R0
          	ST   Z+,R0
          	ST   Z,R0
          	.ENDM
         
          	.MACRO __CLRD1SX
          	MOV  R30,R28
          	MOV  R31,R29
          	SUBI R30,LOW(-@0)
          	SBCI R31,HIGH(-@0)
          	CLR  R0
          	ST   Z+,R0
          	ST   Z+,R0
          	ST   Z+,R0
          	ST   Z,R0
          	.ENDM
         
          	.MACRO __PUTB2SX
          	MOV  R30,R28
          	MOV  R31,R29
          	SUBI R30,LOW(-@0)
          	SBCI R31,HIGH(-@0)
          	ST   Z,R26
          	.ENDM
         
          	.MACRO __PUTW2SX
          	MOV  R30,R28
          	MOV  R31,R29
          	SUBI R30,LOW(-@0)
          	SBCI R31,HIGH(-@0)
          	ST   Z+,R26
          	ST   Z,R27
          	.ENDM
         
          	.MACRO __PUTBSRX
          	MOV  R30,R28
          	MOV  R31,R29
          	SUBI R30,LOW(-@0)
          	SBCI R31,HIGH(-@0)
          	ST   Z,R@1
          	.ENDM
         
          	.MACRO __PUTWSRX
          	MOV  R30,R28
          	MOV  R31,R29
          	SUBI R30,LOW(-@2)
          	SBCI R31,HIGH(-@2)
          	ST   Z+,R@0
          	ST   Z,R@1
          	.ENDM
         
          	.MACRO __PUTB1SNX
          	MOV  R26,R28
          	MOV  R27,R29
          	SUBI R26,LOW(-@0)
          	SBCI R27,HIGH(-@0)
          	LD   R0,X+
          	LD   R27,X
          	MOV  R26,R0
          	SUBI R26,LOW(-@1)
          	SBCI R27,HIGH(-@1)
          	ST   X,R30
          	.ENDM
         
          	.MACRO __PUTW1SNX
          	MOV  R26,R28
          	MOV  R27,R29
          	SUBI R26,LOW(-@0)
          	SBCI R27,HIGH(-@0)
          	LD   R0,X+
          	LD   R27,X
          	MOV  R26,R0
          	SUBI R26,LOW(-@1)
          	SBCI R27,HIGH(-@1)
          	ST   X+,R30
          	ST   X,R31
          	.ENDM
         
          	.MACRO __PUTD1SNX
          	MOV  R26,R28
          	MOV  R27,R29
          	SUBI R26,LOW(-@0)
          	SBCI R27,HIGH(-@0)
          	LD   R0,X+
          	LD   R27,X
          	MOV  R26,R0
          	SUBI R26,LOW(-@1)
          	SBCI R27,HIGH(-@1)
          	ST   X+,R30
          	ST   X+,R31
          	ST   X+,R22
          	ST   X,R23
          	.ENDM
         
          	.CSEG
          	.ORG 0
         
          	.INCLUDE "main.vec"
         
         ;INTERRUPT VECTORS
000000 c00a      	RJMP __RESET
000001 cffe      	RJMP 0
000002 cffd      	RJMP 0
000003 c041      	RJMP _timer0_ovf_isr
000004 cffb      	RJMP 0
000005 cffa      	RJMP 0
000006 cff9      	RJMP 0
000007 cff8      	RJMP 0
000008 cff7      	RJMP 0
000009 cff6      	RJMP 0
         
          	.INCLUDE "main.inc"
          	.DEF _t0_cnt0=R4
          	.DEF _time_cnt=R6
          	.DEF _time_stamp=R8
          	.DEF _rele_cnt=R10
          	.DEF _in_cnt=R12
         
          __GLOBAL_INI_TBL:
          	.DW  0
00000a 0000
         
          __RESET:
00000b 94f8      	CLI
00000c 27ee      	CLR  R30
00000d bbec      	OUT  EECR,R30
00000e bfe5      	OUT  MCUCR,R30
         
         ;DISABLE WATCHDOG
00000f e1f8      	LDI  R31,0x18
000010 b7a4      	IN   R26,MCUSR
000011 bfe4      	OUT  MCUSR,R30
000012 bdf1      	OUT  WDTCR,R31
000013 bde1      	OUT  WDTCR,R30
000014 bfa4      	OUT  MCUSR,R26
         
         ;CLEAR R2-R14
000015 e08d      	LDI  R24,13
000016 e0a2      	LDI  R26,2
          __CLEAR_REG:
000017 93ed      	ST   X+,R30
000018 958a      	DEC  R24
000019 f7e9      	BRNE __CLEAR_REG
         
         ;CLEAR SRAM
00001a e480      	LDI  R24,LOW(0x40)
00001b e6a0      	LDI  R26,0x60
          __CLEAR_SRAM:
00001c 93ed      	ST   X+,R30
00001d 958a      	DEC  R24
00001e f7e9      	BRNE __CLEAR_SRAM
         
         ;GLOBAL VARIABLES INITIALIZATION
00001f e1e4      	LDI  R30,LOW(__GLOBAL_INI_TBL*2)
000020 e0f0      	LDI  R31,HIGH(__GLOBAL_INI_TBL*2)
          __GLOBAL_INI_NEXT:
000021 95c8      	LPM
000022 9631      	ADIW R30,1
000023 2d80      	MOV  R24,R0
000024 95c8      	LPM
000025 9631      	ADIW R30,1
000026 2d90      	MOV  R25,R0
000027 9700      	SBIW R24,0
000028 f0b9      	BREQ __GLOBAL_INI_END
000029 95c8      	LPM
00002a 9631      	ADIW R30,1
00002b 2da0      	MOV  R26,R0
00002c 95c8      	LPM
00002d 9631      	ADIW R30,1
00002e 2db0      	MOV  R27,R0
00002f 95c8      	LPM
000030 9631      	ADIW R30,1
000031 2c10      	MOV  R1,R0
000032 95c8      	LPM
000033 9631      	ADIW R30,1
000034 2f6e      	MOV  R22,R30
000035 2f7f      	MOV  R23,R31
000036 2df0      	MOV  R31,R0
000037 2de1      	MOV  R30,R1
          __GLOBAL_INI_LOOP:
000038 95c8      	LPM
000039 9631      	ADIW R30,1
00003a 920d      	ST   X+,R0
00003b 9701      	SBIW R24,1
00003c f7d9      	BRNE __GLOBAL_INI_LOOP
00003d 2fe6      	MOV  R30,R22
00003e 2ff7      	MOV  R31,R23
00003f cfe1      	RJMP __GLOBAL_INI_NEXT
          __GLOBAL_INI_END:
         
         ;STACK POINTER INITIALIZATION
000040 e9ef      	LDI  R30,LOW(0x9F)
000041 bfed      	OUT  SPL,R30
         
         ;DATA STACK POINTER INITIALIZATION
000042 e7c0      	LDI  R28,LOW(0x70)
000043 e0d0      	LDI  R29,HIGH(0x70)
         
000044 c025      	RJMP _main
         
          	.ESEG
          	.ORG 0
         
          	.DSEG
          	.ORG 0x70
         ;       1 /*****************************************************
         ;       2 This program was produced by the
         ;       3 CodeWizardAVR V1.24.1d Standard
         ;       4 Automatic Program Generator
         ;       5 © Copyright 1998-2004 Pavel Haiduc, HP InfoTech s.r.l.
         ;       6 http://www.hpinfotech.ro
         ;       7 e-mail:office@hpinfotech.ro
         ;       8 
         ;       9 Project : 
         ;      10 Version : 
         ;      11 Date    : 07.11.2015
         ;      12 Author  : PAL                             
         ;      13 Company : HOME                            
         ;      14 Comments: 
         ;      15 
         ;      16 
         ;      17 Chip type           : ATtiny13
         ;      18 Clock frequency     : 0,128000 MHz
         ;      19 Memory model        : Tiny
         ;      20 External SRAM size  : 0
         ;      21 Data Stack size     : 16
         ;      22 *****************************************************/
         ;      23 
         ;      24 #include <tiny13.h>
         ;      25 
         ;      26 short t0_cnt0;
         ;      27 bit b1Hz;
         ;      28 bit b10Hz;
         ;      29 short time_cnt;
         ;      30 short time_stamp;
         ;      31 short rele_cnt;
         ;      32 short in_cnt;
         ;      33 
         ;      34 // Timer 0 overflow interrupt service routine
         ;      35 interrupt [TIM0_OVF] void timer0_ovf_isr(void)
         ;      36 {
         
          	.CSEG
          _timer0_ovf_isr:
000045 93ea      	ST   -Y,R30
000046 93fa      	ST   -Y,R31
000047 b7ef      	IN   R30,SREG
000048 93ea      	ST   -Y,R30
         ;      37 TCNT0=-50;
000049 ecee      	LDI  R30,LOW(206)
00004a bfe2      	OUT  0x32,R30
         ;      38 t0_cnt0++;
00004b   +  	__GETW1R 4,5
00004d 9631      	ADIW R30,1
00004e   +  	__PUTW1R 4,5
         ;      39 
         ;      40 b10Hz=1;
000050 9468      	SET
000051 f821      	BLD  R2,1
         ;      41 
         ;      42 if(t0_cnt0>10)
000052 e0ea      	LDI  R30,LOW(10)
000053 e0f0      	LDI  R31,HIGH(10)
000054 15e4      	CP   R30,R4
000055 05f5      	CPC  R31,R5
000056 f424      	BRGE _0x3
         ;      43 	{
         ;      44 	t0_cnt0=0;
000057 2444      	CLR  R4
000058 2455      	CLR  R5
         ;      45 	b1Hz=1;
000059 9468      	SET
00005a f820      	BLD  R2,0
         ;      46 	}
         ;      47 
         ;      48 }
          _0x3:
00005b 91e9      	LD   R30,Y+
00005c bfef      	OUT  SREG,R30
00005d 91f9      	LD   R31,Y+
00005e 91e9      	LD   R30,Y+
00005f 9518      	RETI
         ;      49 
         ;      50 #define ADC_VREF_TYPE 0x00
         ;      51 // Read the AD conversion result
         ;      52 unsigned int read_adc(unsigned char adc_input)
         ;      53 {
          _read_adc:
         ;      54 ADMUX=adc_input|ADC_VREF_TYPE;
000060 81e8      	LD   R30,Y
000061 b9e7      	OUT  0x7,R30
         ;      55 // Start the AD conversion
         ;      56 ADCSRA|=0x40;
000062 9a36      	SBI  0x6,6
         ;      57 // Wait for the AD conversion to complete
         ;      58 while ((ADCSRA & 0x10)==0);
          _0x4:
000063 9b34      	SBIS 0x6,4
000064 cffe      	RJMP _0x4
         ;      59 ADCSRA|=0x10;
000065 9a34      	SBI  0x6,4
         ;      60 return ADCW;
000066 b1e4      	IN   R30,0x4
000067 b1f5      	IN   R31,0x4+1
000068 9621      	ADIW R28,1
000069 9508      	RET
         ;      61 }
         ;      62 
         ;      63 // Declare your global variables here
         ;      64 
         ;      65 void main(void)
         ;      66 {
          _main:
         ;      67 // Declare your local variables here
         ;      68 
         ;      69 // Crystal Oscillator division factor: 1
         ;      70 CLKPR=0x80;
00006a e8e0      	LDI  R30,LOW(128)
00006b d065      	RCALL SUBOPT_0x0
         ;      71 CLKPR=0x00;
00006c d064      	RCALL SUBOPT_0x0
         ;      72 
         ;      73 // Input/Output Ports initialization
         ;      74 // Port B initialization
         ;      75 // Func5=In Func4=In Func3=In Func2=In Func1=In Func0=Out 
         ;      76 // State5=T State4=T State3=T State2=T State1=T State0=0 
         ;      77 PORTB=0x00;
00006d bbe8      	OUT  0x18,R30
         ;      78 DDRB=0x01;
00006e e0e1      	LDI  R30,LOW(1)
00006f bbe7      	OUT  0x17,R30
         ;      79 
         ;      80 // Timer/Counter 0 initialization
         ;      81 // Clock source: System Clock
         ;      82 // Clock value: 0,500 kHz
         ;      83 // Mode: Normal top=FFh
         ;      84 // OC0A output: Disconnected
         ;      85 // OC0B output: Disconnected
         ;      86 TCCR0A=0x00;
000070 e0e0      	LDI  R30,LOW(0)
000071 bdef      	OUT  0x2F,R30
         ;      87 TCCR0B=0x04;
000072 e0e4      	LDI  R30,LOW(4)
000073 bfe3      	OUT  0x33,R30
         ;      88 TCNT0=0x00;
000074 e0e0      	LDI  R30,LOW(0)
000075 bfe2      	OUT  0x32,R30
         ;      89 OCR0A=0x00;
000076 bfe6      	OUT  0x36,R30
         ;      90 OCR0B=0x00;
000077 bde9      	OUT  0x29,R30
         ;      91 
         ;      92 // External Interrupt(s) initialization
         ;      93 // INT0: Off
         ;      94 // Interrupt on any change on pins PCINT0-5: Off
         ;      95 GIMSK=0x00;
000078 bfeb      	OUT  0x3B,R30
         ;      96 MCUCR=0x00;
000079 bfe5      	OUT  0x35,R30
         ;      97 
         ;      98 // Timer/Counter 0 Interrupt(s) initialization
         ;      99 TIMSK0=0x02;
00007a e0e2      	LDI  R30,LOW(2)
00007b bfe9      	OUT  0x39,R30
         ;     100 
         ;     101 // Analog Comparator initialization
         ;     102 // Analog Comparator: Off
         ;     103 // Analog Comparator Output: Off
         ;     104 ACSR=0x80;
00007c e8e0      	LDI  R30,LOW(128)
00007d b9e8      	OUT  0x8,R30
         ;     105 ADCSRB=0x00;
00007e e0e0      	LDI  R30,LOW(0)
00007f b9e3      	OUT  0x3,R30
         ;     106 
         ;     107 // ADC initialization
         ;     108 // ADC Clock frequency: 32,000 kHz
         ;     109 // ADC Bandgap Voltage Reference: Off
         ;     110 // ADC Auto Trigger Source: Free Running
         ;     111 // Digital input buffers on ADC0: On, ADC1: On, ADC2: On, ADC3: On,
         ;     112 // ADC4: On
         ;     113 DIDR0=0x00;
000080 bbe4      	OUT  0x14,R30
         ;     114 ADMUX=ADC_VREF_TYPE;
000081 b9e7      	OUT  0x7,R30
         ;     115 ADCSRA=0x82;
000082 e8e2      	LDI  R30,LOW(130)
000083 b9e6      	OUT  0x6,R30
         ;     116 ADCSRB&=0xF8;
000084 b1e3      	IN   R30,0x3
000085 7fe8      	ANDI R30,LOW(0xF8)
000086 b9e3      	OUT  0x3,R30
         ;     117 
         ;     118 // Global enable interrupts
         ;     119 #asm("sei")
000087 9478      	sei
         ;     120 
         ;     121 while (1)
          _0x7:
         ;     122       {
         ;     123       if(b10Hz)
000088 fe21      	SBRS R2,1
000089 c02c      	RJMP _0xA
         ;     124       	{
         ;     125       	b10Hz=0;
00008a 94e8      	CLT
00008b f821      	BLD  R2,1
         ;     126       	time_stamp=((read_adc(3)-350)/15)+5; 
00008c e0e3      	LDI  R30,LOW(3)
00008d 93ea      	ST   -Y,R30
00008e dfd1      	RCALL _read_adc
00008f 55ee      	SUBI R30,LOW(350)
000090 40f1      	SBCI R31,HIGH(350)
000091 2fae      	MOV  R26,R30
000092 2fbf      	MOV  R27,R31
000093 e0ef      	LDI  R30,LOW(15)
000094 e0f0      	LDI  R31,HIGH(15)
000095 d043      	RCALL __DIVW21U
000096 9635      	ADIW R30,5
000097   +  	__PUTW1R 8,9
         ;     127       //	time_stamp=10;
         ;     128       	/*time_cnt++;
         ;     129       	if(time_cnt>time_stamp)
         ;     130       		{
         ;     131       		time_cnt=0;
         ;     132       		PORTB.0=!PORTB.0;
         ;     133       		}*/
         ;     134       		
         ;     135       	if((rele_cnt)&&(rele_cnt<time_stamp))
000099 2c0a      	MOV  R0,R10
00009a 280b      	OR   R0,R11
00009b f019      	BREQ _0xC
00009c   +  	__CPWRR 10,11,8,9
00009e f00c      	BRLT _0xD
          _0xC:
00009f c00a      	RJMP _0xB
          _0xD:
         ;     136       		{
         ;     137       		rele_cnt++;
0000a0   +  	__GETW1R 10,11
0000a2 9631      	ADIW R30,1
0000a3   +  	__PUTW1R 10,11
         ;     138       		if(rele_cnt>=time_stamp)rele_cnt=0;
0000a5   +  	__CPWRR 10,11,8,9
0000a7 f014      	BRLT _0xE
0000a8 24aa      	CLR  R10
0000a9 24bb      	CLR  R11
         ;     139       		}	                                          
          _0xE:
         ;     140       		
         ;     141       	if((rele_cnt>=5)&&(rele_cnt<=time_stamp)) PORTB.0=1;
          _0xB:
0000aa e0e5      	LDI  R30,LOW(5)
0000ab e0f0      	LDI  R31,HIGH(5)
0000ac 16ae      	CP   R10,R30
0000ad 06bf      	CPC  R11,R31
0000ae f01c      	BRLT _0x10
0000af   +  	__CPWRR 8,9,10,11
0000b1 f40c      	BRGE _0x11
          _0x10:
0000b2 c002      	RJMP _0xF
          _0x11:
0000b3 9ac0      	SBI  0x18,0
         ;     142       	else 							  PORTB.0=0;
0000b4 c001      	RJMP _0x12
          _0xF:
0000b5 98c0      	CBI  0x18,0
          _0x12:
         ;     143       		
         ;     144       	}
         ;     145       if(b1Hz)
          _0xA:
0000b6 fe20      	SBRS R2,0
0000b7 c002      	RJMP _0x13
         ;     146       	{
         ;     147       	b1Hz=0;
0000b8 94e8      	CLT
0000b9 f820      	BLD  R2,0
         ;     148       	//
         ;     149 
         ;     150       	}
         ;     151       if(PINB.1)
          _0x13:
0000ba 9bb1      	SBIS 0x16,1
0000bb c011      	RJMP _0x14
         ;     152       	{        
         ;     153       	if(in_cnt<200)
0000bc d017      	RCALL SUBOPT_0x1
0000bd f474      	BRGE _0x15
         ;     154       		{
         ;     155       		in_cnt++;
0000be   +  	__GETW1R 12,13
0000c0 9631      	ADIW R30,1
0000c1   +  	__PUTW1R 12,13
         ;     156       		if(in_cnt>=200)
0000c3 d010      	RCALL SUBOPT_0x1
0000c4 f03c      	BRLT _0x16
         ;     157       			{
         ;     158       			if(rele_cnt==0)
0000c5 2c0a      	MOV  R0,R10
0000c6 280b      	OR   R0,R11
0000c7 f421      	BRNE _0x17
         ;     159       				{
         ;     160       				rele_cnt=1;
0000c8 e0e1      	LDI  R30,LOW(1)
0000c9 e0f0      	LDI  R31,HIGH(1)
0000ca   +  	__PUTW1R 10,11
         ;     161       				}
         ;     162       			}
          _0x17:
         ;     163       		}
          _0x16:
         ;     164       	}
          _0x15:
         ;     165       else 
0000cc c002      	RJMP _0x18
          _0x14:
         ;     166       	{
         ;     167       	in_cnt=0;
0000cd 24cc      	CLR  R12
0000ce 24dd      	CLR  R13
         ;     168       	}		
          _0x18:
         ;     169       };
0000cf cfb8      	RJMP _0x7
         ;     170 }
          _0x19:
0000d0 cfff      	RJMP _0x19
         
         ;OPTIMIZER ADDED SUBROUTINE, CALLED 2 TIMES
          SUBOPT_0x0:
0000d1 bde6      	OUT  0x26,R30
0000d2 e0e0      	LDI  R30,LOW(0)
0000d3 9508      	RET
         
         ;OPTIMIZER ADDED SUBROUTINE, CALLED 2 TIMES
          SUBOPT_0x1:
0000d4 ece8      	LDI  R30,LOW(200)
0000d5 e0f0      	LDI  R31,HIGH(200)
0000d6 16ce      	CP   R12,R30
0000d7 06df      	CPC  R13,R31
0000d8 9508      	RET
         
          __DIVW21U:
0000d9 2400      	CLR  R0
0000da 2411      	CLR  R1
0000db e190      	LDI  R25,16
          __DIVW21U1:
0000dc 0faa      	LSL  R26
0000dd 1fbb      	ROL  R27
0000de 1c00      	ROL  R0
0000df 1c11      	ROL  R1
0000e0 1a0e      	SUB  R0,R30
0000e1 0a1f      	SBC  R1,R31
0000e2 f418      	BRCC __DIVW21U2
0000e3 0e0e      	ADD  R0,R30
0000e4 1e1f      	ADC  R1,R31
0000e5 c001      	RJMP __DIVW21U3
          __DIVW21U2:
0000e6 60a1      	SBR  R26,1
          __DIVW21U3:
0000e7 959a      	DEC  R25
0000e8 f799      	BRNE __DIVW21U1
0000e9 2fea      	MOV  R30,R26
0000ea 2ffb      	MOV  R31,R27
0000eb 2da0      	MOV  R26,R0
0000ec 2db1      	MOV  R27,R1
0000ed 9508      	RET
         

Assembly complete with no errors.
