
AVRASM ver. 1.52  a_kl.asm Mon Feb 25 10:29:49 2008


         ;CodeVisionAVR C Compiler V1.24.1d Standard
         ;(C) Copyright 1998-2004 Pavel Haiduc, HP InfoTech s.r.l.
         ;http://www.hpinfotech.ro
         ;e-mail:office@hpinfotech.ro
         
         ;Chip type           : ATmega32
         ;Program type        : Application
         ;Clock frequency     : 8,000000 MHz
         ;Memory model        : Small
         ;Optimize for        : Size
         ;(s)printf features  : int, width
         ;(s)scanf features   : long, width
         ;External SRAM size  : 0
         ;Data Stack size     : 512 byte(s)
         ;Heap size           : 0 byte(s)
         ;Promote char to int : No
         ;char is unsigned    : Yes
         ;8 bit enums         : No
         ;Enhanced core instructions    : On
         ;Automatic register allocation : On
         
          	.EQU UDRE=0x5
          	.EQU RXC=0x7
          	.EQU USR=0xB
          	.EQU UDR=0xC
          	.EQU EERE=0x0
          	.EQU EEWE=0x1
          	.EQU EEMWE=0x2
          	.EQU SPSR=0xE
          	.EQU SPDR=0xF
          	.EQU EECR=0x1C
          	.EQU EEDR=0x1D
          	.EQU EEARL=0x1E
          	.EQU EEARH=0x1F
          	.EQU WDTCR=0x21
          	.EQU MCUCR=0x35
          	.EQU GICR=0x3B
          	.EQU SPL=0x3D
          	.EQU SPH=0x3E
          	.EQU SREG=0x3F
         
          	.DEF R0X0=R0
          	.DEF R0X1=R1
          	.DEF R0X2=R2
          	.DEF R0X3=R3
          	.DEF R0X4=R4
          	.DEF R0X5=R5
          	.DEF R0X6=R6
          	.DEF R0X7=R7
          	.DEF R0X8=R8
          	.DEF R0X9=R9
          	.DEF R0XA=R10
          	.DEF R0XB=R11
          	.DEF R0XC=R12
          	.DEF R0XD=R13
          	.DEF R0XE=R14
          	.DEF R0XF=R15
          	.DEF R0X10=R16
          	.DEF R0X11=R17
          	.DEF R0X12=R18
          	.DEF R0X13=R19
          	.DEF R0X14=R20
          	.DEF R0X15=R21
          	.DEF R0X16=R22
          	.DEF R0X17=R23
          	.DEF R0X18=R24
          	.DEF R0X19=R25
          	.DEF R0X1A=R26
          	.DEF R0X1B=R27
          	.DEF R0X1C=R28
          	.DEF R0X1D=R29
          	.DEF R0X1E=R30
          	.DEF R0X1F=R31
         
          	.EQU __se_bit=0x80
          	.EQU __sm_mask=0x70
          	.EQU __sm_adc_noise_red=0x10
          	.EQU __sm_powerdown=0x20
          	.EQU __sm_powersave=0x30
          	.EQU __sm_standby=0x60
          	.EQU __sm_ext_standby=0x70
         
          	.MACRO __CPD1N
          	CPI  R30,LOW(@0)
          	LDI  R26,HIGH(@0)
          	CPC  R31,R26
          	LDI  R26,BYTE3(@0)
          	CPC  R22,R26
          	LDI  R26,BYTE4(@0)
          	CPC  R23,R26
          	.ENDM
         
          	.MACRO __CPD2N
          	CPI  R26,LOW(@0)
          	LDI  R30,HIGH(@0)
          	CPC  R27,R30
          	LDI  R30,BYTE3(@0)
          	CPC  R24,R30
          	LDI  R30,BYTE4(@0)
          	CPC  R25,R30
          	.ENDM
         
          	.MACRO __CPWRR
          	CP   R@0,R@2
          	CPC  R@1,R@3
          	.ENDM
         
          	.MACRO __CPWRN
          	CPI  R@0,LOW(@2)
          	LDI  R30,HIGH(@2)
          	CPC  R@1,R30
          	.ENDM
         
          	.MACRO __ADDD1N
          	SUBI R30,LOW(-@0)
          	SBCI R31,HIGH(-@0)
          	SBCI R22,BYTE3(-@0)
          	SBCI R23,BYTE4(-@0)
          	.ENDM
         
          	.MACRO __ADDD2N
          	SUBI R26,LOW(-@0)
          	SBCI R27,HIGH(-@0)
          	SBCI R24,BYTE3(-@0)
          	SBCI R25,BYTE4(-@0)
          	.ENDM
         
          	.MACRO __SUBD1N
          	SUBI R30,LOW(@0)
          	SBCI R31,HIGH(@0)
          	SBCI R22,BYTE3(@0)
          	SBCI R23,BYTE4(@0)
          	.ENDM
         
          	.MACRO __SUBD2N
          	SUBI R26,LOW(@0)
          	SBCI R27,HIGH(@0)
          	SBCI R24,BYTE3(@0)
          	SBCI R25,BYTE4(@0)
          	.ENDM
         
          	.MACRO __ANDD1N
          	ANDI R30,LOW(@0)
          	ANDI R31,HIGH(@0)
          	ANDI R22,BYTE3(@0)
          	ANDI R23,BYTE4(@0)
          	.ENDM
         
          	.MACRO __ORD1N
          	ORI  R30,LOW(@0)
          	ORI  R31,HIGH(@0)
          	ORI  R22,BYTE3(@0)
          	ORI  R23,BYTE4(@0)
          	.ENDM
         
          	.MACRO __DELAY_USB
          	LDI  R24,LOW(@0)
          __DELAY_USB_LOOP:
          	DEC  R24
          	BRNE __DELAY_USB_LOOP
          	.ENDM
         
          	.MACRO __DELAY_USW
          	LDI  R24,LOW(@0)
          	LDI  R25,HIGH(@0)
          __DELAY_USW_LOOP:
          	SBIW R24,1
          	BRNE __DELAY_USW_LOOP
          	.ENDM
         
          	.MACRO __CLRD1S
          	LDI  R30,0
          	STD  Y+@0,R30
          	STD  Y+@0+1,R30
          	STD  Y+@0+2,R30
          	STD  Y+@0+3,R30
          	.ENDM
         
          	.MACRO __GETD1S
          	LDD  R30,Y+@0
          	LDD  R31,Y+@0+1
          	LDD  R22,Y+@0+2
          	LDD  R23,Y+@0+3
          	.ENDM
         
          	.MACRO __PUTD1S
          	STD  Y+@0,R30
          	STD  Y+@0+1,R31
          	STD  Y+@0+2,R22
          	STD  Y+@0+3,R23
          	.ENDM
         
          	.MACRO __POINTB1MN
          	LDI  R30,LOW(@0+@1)
          	.ENDM
         
          	.MACRO __POINTW1MN
          	LDI  R30,LOW(@0+@1)
          	LDI  R31,HIGH(@0+@1)
          	.ENDM
         
          	.MACRO __POINTW1FN
          	LDI  R30,LOW(2*@0+@1)
          	LDI  R31,HIGH(2*@0+@1)
          	.ENDM
         
          	.MACRO __POINTB2MN
          	LDI  R26,LOW(@0+@1)
          	.ENDM
         
          	.MACRO __POINTW2MN
          	LDI  R26,LOW(@0+@1)
          	LDI  R27,HIGH(@0+@1)
          	.ENDM
         
          	.MACRO __POINTBRM
          	LDI  R@0,LOW(@1)
          	.ENDM
         
          	.MACRO __POINTWRM
          	LDI  R@0,LOW(@2)
          	LDI  R@1,HIGH(@2)
          	.ENDM
         
          	.MACRO __POINTBRMN
          	LDI  R@0,LOW(@1+@2)
          	.ENDM
         
          	.MACRO __POINTWRMN
          	LDI  R@0,LOW(@2+@3)
          	LDI  R@1,HIGH(@2+@3)
          	.ENDM
         
          	.MACRO __GETD1N
          	LDI  R30,LOW(@0)
          	LDI  R31,HIGH(@0)
          	LDI  R22,BYTE3(@0)
          	LDI  R23,BYTE4(@0)
          	.ENDM
         
          	.MACRO __GETD2N
          	LDI  R26,LOW(@0)
          	LDI  R27,HIGH(@0)
          	LDI  R24,BYTE3(@0)
          	LDI  R25,BYTE4(@0)
          	.ENDM
         
          	.MACRO __GETD2S
          	LDD  R26,Y+@0
          	LDD  R27,Y+@0+1
          	LDD  R24,Y+@0+2
          	LDD  R25,Y+@0+3
          	.ENDM
         
          	.MACRO __GETB1MN
          	LDS  R30,@0+@1
          	.ENDM
         
          	.MACRO __GETW1MN
          	LDS  R30,@0+@1
          	LDS  R31,@0+@1+1
          	.ENDM
         
          	.MACRO __GETD1MN
          	LDS  R30,@0+@1
          	LDS  R31,@0+@1+1
          	LDS  R22,@0+@1+2
          	LDS  R23,@0+@1+3
          	.ENDM
         
          	.MACRO __GETBRMN
          	LDS  R@2,@0+@1
          	.ENDM
         
          	.MACRO __GETWRMN
          	LDS  R@2,@0+@1
          	LDS  R@3,@0+@1+1
          	.ENDM
         
          	.MACRO __GETB2MN
          	LDS  R26,@0+@1
          	.ENDM
         
          	.MACRO __GETW2MN
          	LDS  R26,@0+@1
          	LDS  R27,@0+@1+1
          	.ENDM
         
          	.MACRO __GETD2MN
          	LDS  R26,@0+@1
          	LDS  R27,@0+@1+1
          	LDS  R24,@0+@1+2
          	LDS  R25,@0+@1+3
          	.ENDM
         
          	.MACRO __PUTB1MN
          	STS  @0+@1,R30
          	.ENDM
         
          	.MACRO __PUTW1MN
          	STS  @0+@1,R30
          	STS  @0+@1+1,R31
          	.ENDM
         
          	.MACRO __PUTD1MN
          	STS  @0+@1,R30
          	STS  @0+@1+1,R31
          	STS  @0+@1+2,R22
          	STS  @0+@1+3,R23
          	.ENDM
         
          	.MACRO __PUTBMRN
          	STS  @0+@1,R@2
          	.ENDM
         
          	.MACRO __PUTWMRN
          	STS  @0+@1,R@2
          	STS  @0+@1+1,R@3
          	.ENDM
         
          	.MACRO __GETW1R
          	MOV  R30,R@0
          	MOV  R31,R@1
          	.ENDM
         
          	.MACRO __GETW2R
          	MOV  R26,R@0
          	MOV  R27,R@1
          	.ENDM
         
          	.MACRO __GETWRN
          	LDI  R@0,LOW(@2)
          	LDI  R@1,HIGH(@2)
          	.ENDM
         
          	.MACRO __PUTW1R
          	MOV  R@0,R30
          	MOV  R@1,R31
          	.ENDM
         
          	.MACRO __PUTW2R
          	MOV  R@0,R26
          	MOV  R@1,R27
          	.ENDM
         
          	.MACRO __ADDWRN
          	SUBI R@0,LOW(-@2)
          	SBCI R@1,HIGH(-@2)
          	.ENDM
         
          	.MACRO __ADDWRR
          	ADD  R@0,R@2
          	ADC  R@1,R@3
          	.ENDM
         
          	.MACRO __SUBWRN
          	SUBI R@0,LOW(@2)
          	SBCI R@1,HIGH(@2)
          	.ENDM
         
          	.MACRO __SUBWRR
          	SUB  R@0,R@2
          	SBC  R@1,R@3
          	.ENDM
         
          	.MACRO __ANDWRN
          	ANDI R@0,LOW(@2)
          	ANDI R@1,HIGH(@2)
          	.ENDM
         
          	.MACRO __ANDWRR
          	AND  R@0,R@2
          	AND  R@1,R@3
          	.ENDM
         
          	.MACRO __ORWRN
          	ORI  R@0,LOW(@2)
          	ORI  R@1,HIGH(@2)
          	.ENDM
         
          	.MACRO __ORWRR
          	OR   R@0,R@2
          	OR   R@1,R@3
          	.ENDM
         
          	.MACRO __EORWRR
          	EOR  R@0,R@2
          	EOR  R@1,R@3
          	.ENDM
         
          	.MACRO __GETWRS
          	LDD  R@0,Y+@2
          	LDD  R@1,Y+@2+1
          	.ENDM
         
          	.MACRO __PUTWSR
          	STD  Y+@2,R@0
          	STD  Y+@2+1,R@1
          	.ENDM
         
          	.MACRO __MOVEWRR
          	MOV  R@0,R@2
          	MOV  R@1,R@3
          	.ENDM
         
          	.MACRO __INWR
          	IN   R@0,@2
          	IN   R@1,@2+1
          	.ENDM
         
          	.MACRO __OUTWR
          	OUT  @2+1,R@1
          	OUT  @2,R@0
          	.ENDM
         
          	.MACRO __CALL1MN
          	LDS  R30,@0+@1
          	LDS  R31,@0+@1+1
          	ICALL
          	.ENDM
         
          	.MACRO __NBST
          	BST  R@0,@1
          	IN   R30,SREG
          	LDI  R31,0x40
          	EOR  R30,R31
          	OUT  SREG,R30
          	.ENDM
         
         
          	.MACRO __PUTB1SN
          	LDD  R26,Y+@0
          	LDD  R27,Y+@0+1
          	SUBI R26,LOW(-@1)
          	SBCI R27,HIGH(-@1)
          	ST   X,R30
          	.ENDM
         
          	.MACRO __PUTW1SN
          	LDD  R26,Y+@0
          	LDD  R27,Y+@0+1
          	SUBI R26,LOW(-@1)
          	SBCI R27,HIGH(-@1)
          	ST   X+,R30
          	ST   X,R31
          	.ENDM
         
          	.MACRO __PUTD1SN
          	LDD  R26,Y+@0
          	LDD  R27,Y+@0+1
          	SUBI R26,LOW(-@1)
          	SBCI R27,HIGH(-@1)
          	CALL __PUTDP1
          	.ENDM
         
          	.MACRO __PUTB1SNS
          	LDD  R26,Y+@0
          	LDD  R27,Y+@0+1
          	ADIW R26,@1
          	ST   X,R30
          	.ENDM
         
          	.MACRO __PUTW1SNS
          	LDD  R26,Y+@0
          	LDD  R27,Y+@0+1
          	ADIW R26,@1
          	ST   X+,R30
          	ST   X,R31
          	.ENDM
         
          	.MACRO __PUTD1SNS
          	LDD  R26,Y+@0
          	LDD  R27,Y+@0+1
          	ADIW R26,@1
          	CALL __PUTDP1
          	.ENDM
         
          	.MACRO __PUTB1PMN
          	LDS  R26,@0
          	LDS  R27,@0+1
          	SUBI R26,LOW(-@1)
          	SBCI R27,HIGH(-@1)
          	ST   X,R30
          	.ENDM
         
          	.MACRO __PUTW1PMN
          	LDS  R26,@0
          	LDS  R27,@0+1
          	SUBI R26,LOW(-@1)
          	SBCI R27,HIGH(-@1)
          	ST   X+,R30
          	ST   X,R31
          	.ENDM
         
          	.MACRO __PUTD1PMN
          	LDS  R26,@0
          	LDS  R27,@0+1
          	SUBI R26,LOW(-@1)
          	SBCI R27,HIGH(-@1)
          	CALL __PUTDP1
          	.ENDM
         
          	.MACRO __PUTB1PMNS
          	LDS  R26,@0
          	LDS  R27,@0+1
          	ADIW R26,@1
          	ST   X,R30
          	.ENDM
         
          	.MACRO __PUTW1PMNS
          	LDS  R26,@0
          	LDS  R27,@0+1
          	ADIW R26,@1
          	ST   X+,R30
          	ST   X,R31
          	.ENDM
         
          	.MACRO __PUTD1PMNS
          	LDS  R26,@0
          	LDS  R27,@0+1
          	ADIW R26,@1
          	CALL __PUTDP1
          	.ENDM
         
          	.MACRO __PUTB1RN
          	MOVW R26,R@0
          	SUBI R26,LOW(-@1)
          	SBCI R27,HIGH(-@1)
          	ST   X,R30
          	.ENDM
         
          	.MACRO __PUTW1RN
          	MOVW R26,R@0
          	SUBI R26,LOW(-@1)
          	SBCI R27,HIGH(-@1)
          	ST   X+,R30
          	ST   X,R31
          	.ENDM
         
          	.MACRO __PUTD1RN
          	MOVW R26,R@0
          	SUBI R26,LOW(-@1)
          	SBCI R27,HIGH(-@1)
          	CALL __PUTDP1
          	.ENDM
         
          	.MACRO __PUTB1RNS
          	MOVW R26,R@0
          	ADIW R26,@1
          	ST   X,R30
          	.ENDM
         
          	.MACRO __PUTW1RNS
          	MOVW R26,R@0
          	ADIW R26,@1
          	ST   X+,R30
          	ST   X,R31
          	.ENDM
         
          	.MACRO __PUTD1RNS
          	MOVW R26,R@0
          	ADIW R26,@1
          	CALL __PUTDP1
          	.ENDM
         
          	.MACRO __PUTB1RON
          	MOV  R26,R@0
          	MOV  R27,R@1
          	SUBI R26,LOW(-@2)
          	SBCI R27,HIGH(-@2)
          	ST   X,R30
          	.ENDM
         
          	.MACRO __PUTW1RON
          	MOV  R26,R@0
          	MOV  R27,R@1
          	SUBI R26,LOW(-@2)
          	SBCI R27,HIGH(-@2)
          	ST   X+,R30
          	ST   X,R31
          	.ENDM
         
          	.MACRO __PUTD1RON
          	MOV  R26,R@0
          	MOV  R27,R@1
          	SUBI R26,LOW(-@2)
          	SBCI R27,HIGH(-@2)
          	CALL __PUTDP1
          	.ENDM
         
          	.MACRO __PUTB1RONS
          	MOV  R26,R@0
          	MOV  R27,R@1
          	ADIW R26,@2
          	ST   X,R30
          	.ENDM
         
          	.MACRO __PUTW1RONS
          	MOV  R26,R@0
          	MOV  R27,R@1
          	ADIW R26,@2
          	ST   X+,R30
          	ST   X,R31
          	.ENDM
         
          	.MACRO __PUTD1RONS
          	MOV  R26,R@0
          	MOV  R27,R@1
          	ADIW R26,@2
          	CALL __PUTDP1
          	.ENDM
         
         
          	.MACRO __GETB1SX
          	MOVW R30,R28
          	SUBI R30,LOW(-@0)
          	SBCI R31,HIGH(-@0)
          	LD   R30,Z
          	.ENDM
         
          	.MACRO __GETW1SX
          	MOVW R30,R28
          	SUBI R30,LOW(-@0)
          	SBCI R31,HIGH(-@0)
          	LD   R0,Z+
          	LD   R31,Z
          	MOV  R30,R0
          	.ENDM
         
          	.MACRO __GETD1SX
          	MOVW R30,R28
          	SUBI R30,LOW(-@0)
          	SBCI R31,HIGH(-@0)
          	LD   R0,Z+
          	LD   R1,Z+
          	LD   R22,Z+
          	LD   R23,Z
          	MOVW R30,R0
          	.ENDM
         
          	.MACRO __GETB2SX
          	MOVW R26,R28
          	SUBI R26,LOW(-@0)
          	SBCI R27,HIGH(-@0)
          	LD   R26,X
          	.ENDM
         
          	.MACRO __GETW2SX
          	MOVW R26,R28
          	SUBI R26,LOW(-@0)
          	SBCI R27,HIGH(-@0)
          	LD   R0,X+
          	LD   R27,X
          	MOV  R26,R0
          	.ENDM
         
          	.MACRO __GETD2SX
          	MOVW R26,R28
          	SUBI R26,LOW(-@0)
          	SBCI R27,HIGH(-@0)
          	LD   R0,X+
          	LD   R1,X+
          	LD   R24,X+
          	LD   R25,X
          	MOVW R26,R0
          	.ENDM
         
          	.MACRO __GETBRSX
          	MOVW R30,R28
          	SUBI R30,LOW(-@1)
          	SBCI R31,HIGH(-@1)
          	LD   R@0,Z
          	.ENDM
         
          	.MACRO __GETWRSX
          	MOVW R30,R28
          	SUBI R30,LOW(-@2)
          	SBCI R31,HIGH(-@2)
          	LD   R@0,Z+
          	LD   R@1,Z
          	.ENDM
         
          	.MACRO __LSLW8SX
          	MOVW R30,R28
          	SUBI R30,LOW(-@0)
          	SBCI R31,HIGH(-@0)
          	LD   R31,Z
          	CLR  R30
          	.ENDM
         
          	.MACRO __PUTB1SX
          	MOVW R26,R28
          	SUBI R26,LOW(-@0)
          	SBCI R27,HIGH(-@0)
          	ST   X,R30
          	.ENDM
         
          	.MACRO __PUTW1SX
          	MOVW R26,R28
          	SUBI R26,LOW(-@0)
          	SBCI R27,HIGH(-@0)
          	ST   X+,R30
          	ST   X,R31
          	.ENDM
         
          	.MACRO __PUTD1SX
          	MOVW R26,R28
          	SUBI R26,LOW(-@0)
          	SBCI R27,HIGH(-@0)
          	ST   X+,R30
          	ST   X+,R31
          	ST   X+,R22
          	ST   X,R23
          	.ENDM
         
          	.MACRO __CLRW1SX
          	MOVW R30,R28
          	SUBI R30,LOW(-@0)
          	SBCI R31,HIGH(-@0)
          	CLR  R0
          	ST   Z+,R0
          	ST   Z,R0
          	.ENDM
         
          	.MACRO __CLRD1SX
          	MOVW R30,R28
          	SUBI R30,LOW(-@0)
          	SBCI R31,HIGH(-@0)
          	CLR  R0
          	ST   Z+,R0
          	ST   Z+,R0
          	ST   Z+,R0
          	ST   Z,R0
          	.ENDM
         
          	.MACRO __PUTB2SX
          	MOVW R30,R28
          	SUBI R30,LOW(-@0)
          	SBCI R31,HIGH(-@0)
          	ST   Z,R26
          	.ENDM
         
          	.MACRO __PUTW2SX
          	MOVW R30,R28
          	SUBI R30,LOW(-@0)
          	SBCI R31,HIGH(-@0)
          	ST   Z+,R26
          	ST   Z,R27
          	.ENDM
         
          	.MACRO __PUTBSRX
          	MOVW R30,R28
          	SUBI R30,LOW(-@0)
          	SBCI R31,HIGH(-@0)
          	ST   Z,R@1
          	.ENDM
         
          	.MACRO __PUTWSRX
          	MOVW R30,R28
          	SUBI R30,LOW(-@2)
          	SBCI R31,HIGH(-@2)
          	ST   Z+,R@0
          	ST   Z,R@1
          	.ENDM
         
          	.MACRO __PUTB1SNX
          	MOVW R26,R28
          	SUBI R26,LOW(-@0)
          	SBCI R27,HIGH(-@0)
          	LD   R0,X+
          	LD   R27,X
          	MOV  R26,R0
          	SUBI R26,LOW(-@1)
          	SBCI R27,HIGH(-@1)
          	ST   X,R30
          	.ENDM
         
          	.MACRO __PUTW1SNX
          	MOVW R26,R28
          	SUBI R26,LOW(-@0)
          	SBCI R27,HIGH(-@0)
          	LD   R0,X+
          	LD   R27,X
          	MOV  R26,R0
          	SUBI R26,LOW(-@1)
          	SBCI R27,HIGH(-@1)
          	ST   X+,R30
          	ST   X,R31
          	.ENDM
         
          	.MACRO __PUTD1SNX
          	MOVW R26,R28
          	SUBI R26,LOW(-@0)
          	SBCI R27,HIGH(-@0)
          	LD   R0,X+
          	LD   R27,X
          	MOV  R26,R0
          	SUBI R26,LOW(-@1)
          	SBCI R27,HIGH(-@1)
          	ST   X+,R30
          	ST   X+,R31
          	ST   X+,R22
          	ST   X,R23
          	.ENDM
         
          	.MACRO __MULBRR
          	MULS R@0,R@1
          	MOV  R30,R0
          	.ENDM
         
          	.MACRO __MULBRRU
          	MUL  R@0,R@1
          	MOV  R30,R0
          	.ENDM
         
          	.CSEG
          	.ORG 0
         
          	.INCLUDE "a_kl.vec"
         
         ;INTERRUPT VECTORS
000000 940c 018a 	JMP  __RESET
000002 940c 0000 	JMP  0
000004 940c 0000 	JMP  0
000006 940c 0000 	JMP  0
000008 940c 0000 	JMP  0
00000a 940c 0000 	JMP  0
00000c 940c 0000 	JMP  0
00000e 940c 0000 	JMP  0
000010 940c 0000 	JMP  0
000012 940c 0000 	JMP  0
000014 940c 0000 	JMP  0
000016 940c 1089 	JMP  _timer0_ovf_isr
000018 940c 0000 	JMP  0
00001a 940c 0000 	JMP  0
00001c 940c 0000 	JMP  0
00001e 940c 0000 	JMP  0
000020 940c 0000 	JMP  0
000022 940c 0000 	JMP  0
000024 940c 0000 	JMP  0
000026 940c 0000 	JMP  0
000028 940c 0000 	JMP  0
         
          	.INCLUDE "a_kl.inc"
          _rus_buff:
          	.DB  0xFD,0xA2,0xFF,0xAA,0xC8,0xAC,0xAD,0xAE
00002a a2fd
00002b aaff
00002c acc8
00002d aead
          	.DB  0xAF,0xB0,0xB1,0xD7,0x69,0xB4,0xB5,0xFE
00002e b0af
00002f d7b1
000030 b469
000031 feb5
          	.DB  0xDF,0xB5,0xCC,0xBA,0xC9,0xBC,0xBD,0xBE
000032 b5df
000033 bacc
000034 bcc9
000035 bebd
          	.DB  0xBF,0x41,0xA0,0x42,0xA1,0xE0,0x45,0xA3
000036 41bf
000037 42a0
000038 e0a1
000039 a345
          	.DB  0xA4,0xA5,0xA6,0x4B,0xA7,0x4D,0x48,0x4F
00003a a5a4
00003b 4ba6
00003c 4da7
00003d 4f48
          	.DB  0xA8,0x50,0x43,0x54,0xA9,0xAA,0x58,0xE1
00003e 50a8
00003f 5443
000040 aaa9
000041 e158
          	.DB  0xAB,0xAC,0xE2,0xAD,0xAE,0xC4,0xAF,0xB0
000042 acab
000043 ade2
000044 c4ae
000045 b0af
          	.DB  0xB1,0x61,0xB2,0xB3,0xB4,0xE3,0x65,0xB6
000046 61b1
000047 b3b2
000048 e3b4
000049 b665
          	.DB  0xB7,0xB8,0xB9,0xBA,0xBB,0xBC,0xBD,0x6F
00004a b8b7
00004b bab9
00004c bcbb
00004d 6fbd
          	.DB  0xBE,0x70,0x63,0xBF,0x79,0xAA,0x78,0xE5
00004e 70be
00004f bf63
000050 aa79
000051 e578
          	.DB  0xC0,0xC1,0xE6,0xC2,0xC3,0xC4,0xC5,0xC6
000052 c1c0
000053 c2e6
000054 c4c3
000055 c6c5
          	.DB  0xC7
000056 00c7
          	.DEF _ind=R6
          _char0:
          	.DB  0x8,0xC,0xE,0xF,0xE,0xC,0x8,0x0
000057 0c08
000058 0f0e
000059 0c0e
00005a 0008
          _char1:
          	.DB  0x6,0x9,0x9,0x6,0x0,0x0,0x0,0x0
00005b 0906
00005c 0609
00005d 0000
00005e 0000
          _char2:
          	.DB  0x0,0x2,0x7,0xF,0x1F,0x1F,0xE,0x0
00005f 0200
000060 0f07
000061 1f1f
000062 000e
          _char2_:
          	.DB  0x0,0x4,0xE,0x1F,0x1F,0x1F,0xE,0x0
000063 0400
000064 1f0e
000065 1f1f
000066 000e
          _char2__:
          	.DB  0x0,0x8,0x1C,0x1E,0x1F,0x1F,0xE,0x0
000067 0800
000068 1e1c
000069 1f1f
00006a 000e
          _char3:
          	.DB  0x4,0xE,0x1F,0x0,0x0,0x0,0x0,0x0
00006b 0e04
00006c 001f
00006d 0000
00006e 0000
          _char4:
          	.DB  0x0,0x0,0xF,0x8,0x8,0x8,0xF,0x0
00006f 0000
000070 080f
000071 0808
000072 000f
          _char5:
          	.DB  0x10,0x18,0x1F,0x19,0x11,0x1,0x1F,0x0
000073 1810
000074 191f
000075 0111
000076 001f
          	.DEF _but=R8
          	.DEF _adc_cnt=R9
          	.DEF _adc_cnt1=R10
          	.DEF _sub_ind=R11
          	.DEF _sub_ind1=R12
          	.DEF _index_set=R13
          	.DEF _cnt_ibat=R14
          _temper_table:
          	.DW  0x13EE,0x15EE,0x180C,0x1A5B,0x1CC8,0x1F5C,0x2217,0x24FA
000077 13ee
000078 15ee
000079 180c
00007a 1a5b
00007b 1cc8
00007c 1f5c
00007d 2217
00007e 24fa
          	.DW  0x2804,0x2B36,0x2E85,0x3205,0x35A3,0x3968,0x3D55,0x4169
00007f 2804
000080 2b36
000081 2e85
000082 3205
000083 35a3
000084 3968
000085 3d55
000086 4169
          	.DW  0x45A4,0x49FE,0x4E88,0x51E1,0x55FF
000087 45a4
000088 49fe
000089 4e88
00008a 51e1
00008b 55ff
          _const_of_adc:
          	.DB  0x0,0x3,0x2,0x1
00008c 0300
00008d 0102
          _597:
          	.DB  0x80,0xC0
00008e c080
          _0:
          	.DB  0x0,0x21,0x20,0x20,0x20,0x20,0x20,0x20
00008f 2100
000090 2020
000091 2020
000092 2020
          	.DB  0x20,0x40,0x20,0x20,0x20,0x20,0x20,0x20
000093 4020
000094 2020
000095 2020
000096 2020
          	.DB  0x20,0x0,0x23,0x20,0x20,0x20,0x20,0x20
000097 0020
000098 2023
000099 2020
00009a 2020
          	.DB  0x20,0x20,0x24,0x20,0x20,0x20,0x20,0x20
00009b 2020
00009c 2024
00009d 2020
00009e 2020
          	.DB  0x20,0x20,0x0,0x31,0x20,0x20,0x20,0x21
00009f 2020
0000a0 3100
0000a1 2020
0000a2 2120
          	.DB  0x67,0x43,0x0,0xCD,0x2E,0xC4,0x2E,0x0
0000a3 4367
0000a4 cd00
0000a5 c42e
0000a6 002e
          	.DB  0x31,0x20,0x20,0x23,0x40,0x30,0x21,0x0
0000a7 2031
0000a8 2320
0000a9 3040
0000aa 0021
          	.DB  0xC2,0xDB,0xCA,0xCB,0x2E,0x0,0x32,0x20
0000ab dbc2
0000ac cbca
0000ad 002e
0000ae 2032
          	.DB  0x20,0x20,0x21,0x67,0x43,0x0,0x32,0x20
0000af 2020
0000b0 6721
0000b1 0043
0000b2 2032
          	.DB  0x20,0x23,0x40,0x30,0x21,0x0,0x33,0x20
0000b3 2320
0000b4 3040
0000b5 0021
0000b6 2033
          	.DB  0x20,0x20,0x21,0x67,0x43,0x0,0x33,0x20
0000b7 2020
0000b8 6721
0000b9 0043
0000ba 2033
          	.DB  0x20,0x23,0x40,0x30,0x21,0x0,0x34,0x20
0000bb 2320
0000bc 3040
0000bd 0021
0000be 2034
          	.DB  0x20,0x20,0x21,0x67,0x43,0x0,0x34,0x20
0000bf 2020
0000c0 6721
0000c1 0043
0000c2 2034
          	.DB  0x20,0x23,0x40,0x30,0x21,0x0,0x31,0x20
0000c3 2320
0000c4 3040
0000c5 0021
0000c6 2031
          	.DB  0x20,0x20,0x20,0x20,0x20,0x20,0x32,0x20
0000c7 2020
0000c8 2020
0000c9 2020
0000ca 2032
          	.DB  0x20,0x20,0x20,0x20,0x20,0x20,0x0,0x33
0000cb 2020
0000cc 2020
0000cd 2020
0000ce 3300
          	.DB  0x20,0x20,0x20,0x20,0x20,0x20,0x20,0x34
0000cf 2020
0000d0 2020
0000d1 2020
0000d2 3420
          	.DB  0x20,0x20,0x20,0x20,0x20,0x20,0x20,0x0
0000d3 2020
0000d4 2020
0000d5 2020
0000d6 0020
          	.DB  0x20,0x20,0x20,0x20,0x20,0x20,0x20,0x21
0000d7 2020
0000d8 2020
0000d9 2020
0000da 2120
          	.DB  0x20,0x20,0x20,0x20,0x20,0x20,0x20,0x40
0000db 2020
0000dc 2020
0000dd 2020
0000de 4020
          	.DB  0x0,0x20,0x20,0x20,0x20,0x20,0x20,0x20
0000df 2000
0000e0 2020
0000e1 2020
0000e2 2020
          	.DB  0x23,0x20,0x20,0x20,0x20,0x20,0x20,0x20
0000e3 2023
0000e4 2020
0000e5 2020
0000e6 2020
          	.DB  0x24,0x0,0x20,0xCA,0xE0,0xED,0xE0,0xEB
0000e7 0024
0000e8 ca20
0000e9 ede0
0000ea ebe0
          	.DB  0x31,0x20,0x20,0x20,0x20,0x21,0x20,0x20
0000eb 2031
0000ec 2020
0000ed 2120
0000ee 2020
          	.DB  0x20,0x20,0x0,0x20,0xCA,0xE0,0xED,0xE0
0000ef 2020
0000f0 2000
0000f1 e0ca
0000f2 e0ed
          	.DB  0xEB,0x32,0x20,0x20,0x20,0x20,0x40,0x20
0000f3 32eb
0000f4 2020
0000f5 2020
0000f6 2040
          	.DB  0x20,0x20,0x20,0x0,0x20,0xCA,0xE0,0xED
0000f7 2020
0000f8 0020
0000f9 ca20
0000fa ede0
          	.DB  0xE0,0xEB,0x33,0x20,0x20,0x20,0x20,0x23
0000fb ebe0
0000fc 2033
0000fd 2020
0000fe 2320
          	.DB  0x20,0x20,0x20,0x20,0x0,0x20,0xCA,0xE0
0000ff 2020
000100 2020
000101 2000
000102 e0ca
          	.DB  0xED,0xE0,0xEB,0x34,0x20,0x20,0x20,0x20
000103 e0ed
000104 34eb
000105 2020
000106 2020
          	.DB  0x24,0x20,0x20,0x20,0x20,0x0,0x20,0xC2
000107 2024
000108 2020
000109 0020
00010a c220
          	.DB  0xFB,0xF5,0xEE,0xE4,0x20,0x20,0x20,0x20
00010b f5fb
00010c e4ee
00010d 2020
00010e 2020
          	.DB  0x20,0x20,0x20,0x20,0x20,0x20,0x0,0xC2
00010f 2020
000110 2020
000111 2020
000112 c200
          	.DB  0xCA,0xCB,0x2E,0x0,0x20,0xCA,0xED,0x21
000113 cbca
000114 002e
000115 ca20
000116 21ed
          	.DB  0x20,0x20,0x20,0x6F,0x20,0x20,0x20,0x40
000117 2020
000118 6f20
000119 2020
00011a 4020
          	.DB  0x20,0x20,0x20,0x20,0x0,0x20,0x20,0x20
00011b 2020
00011c 2020
00011d 2000
00011e 2020
          	.DB  0x20,0x20,0x23,0x67,0x43,0x20,0x20,0x20
00011f 2020
000120 6723
000121 2043
000122 2020
          	.DB  0x24,0x25,0x30,0x5E,0x20,0x0,0x20,0x54
000123 2524
000124 5e30
000125 0020
000126 5420
          	.DB  0xF3,0xF1,0xF2,0x2E,0x20,0x20,0x20,0x20
000127 f1f3
000128 2ef2
000129 2020
00012a 2020
          	.DB  0x20,0x20,0x20,0x3E,0x67,0x43,0x0,0x20
00012b 2020
00012c 3e20
00012d 4367
00012e 2000
          	.DB  0xC2,0xF0,0xE5,0xEC,0xFF,0x3A,0x20,0x20
00012f f0c2
000130 ece5
000131 3aff
000132 2020
          	.DB  0x20,0x20,0x28,0xF7,0x30,0x29,0xEC,0x0
000133 2020
000134 f728
000135 2930
000136 00ec
          	.DB  0x20,0xD0,0xE5,0xE6,0xE8,0xEC,0x20,0xE2
000137 d020
000138 e6e5
000139 ece8
00013a e220
          	.DB  0xF0,0xE5,0xEC,0xE5,0xED,0xE8,0x20,0x3C
00013b e5f0
00013c e5ec
00013d e8ed
00013e 3c20
          	.DB  0x0,0x20,0xD1,0xF2,0xEE,0xEF,0x20,0x20
00013f 2000
000140 f2d1
000141 efee
000142 2020
          	.DB  0x20,0x20,0x20,0x20,0x20,0x20,0x20,0x20
000143 2020
000144 2020
000145 2020
000146 2020
          	.DB  0x20,0x0,0x20,0xD1,0xF2,0xE0,0xF0,0xF2
000147 0020
000148 d120
000149 e0f2
00014a f2f0
          	.DB  0x20,0x20,0x20,0x20,0x20,0x20,0x20,0x20
00014b 2020
00014c 2020
00014d 2020
00014e 2020
          	.DB  0x20,0x20,0x0,0x20,0xCA,0xE0,0xEB,0xE8
00014f 2020
000150 2000
000151 e0ca
000152 e8eb
          	.DB  0xE1,0xF0,0xEE,0xE2,0xEA,0xE0,0x20,0x20
000153 f0e1
000154 e2ee
000155 e0ea
000156 2020
          	.DB  0x20,0x20,0x20,0x0,0xCD,0x2E,0xC4,0x2E
000157 2020
000158 0020
000159 2ecd
00015a 2ec4
          	.DB  0x20,0x0,0x20,0x54,0x21,0x20,0x20,0x20
00015b 0020
00015c 5420
00015d 2021
00015e 2020
          	.DB  0x20,0x20,0x20,0x40,0x67,0x43,0x20,0x20
00015f 2020
000160 4020
000161 4367
000162 2020
          	.DB  0x20,0x20,0x0,0x20,0x20,0x20,0xCA,0xC0
000163 2020
000164 2000
000165 2020
000166 c0ca
          	.DB  0xCB,0xC8,0xC1,0xD0,0xCE,0xC2,0xCA,0xC0
000167 c8cb
000168 d0c1
000169 c2ce
00016a c0ca
          	.DB  0x20,0x20,0x20,0x0,0x20,0x20,0x20,0x20
00016b 2020
00016c 0020
00016d 2020
00016e 2020
          	.DB  0x20,0xC4,0xC0,0xD2,0xD7,0xC8,0xCA,0x20
00016f c420
000170 d2c0
000171 c8d7
000172 20ca
          	.DB  0x20,0x20,0x20,0x20,0x0,0x20,0x20,0x20
000173 2020
000174 2020
000175 2000
000176 2020
          	.DB  0xCD,0xC5,0xC8,0xD1,0xCF,0xD0,0xC0,0xC2
000177 c5cd
000178 d1c8
000179 d0cf
00017a c2c0
          	.DB  0xC5,0xCD,0x20,0x20,0x20,0x0
00017b cdc5
00017c 2020
00017d 0020
         
         ;REGISTER BIT VARIABLES INITIALIZATION
          __REG_BIT_VARS:
          	.DW  0x0000
00017e 0000
          	.DW  0x0008
00017f 0008
         
          __GLOBAL_INI_TBL:
          	.DW  0x04
000180 0004
          	.DW  0x02
000181 0002
          	.DW  __REG_BIT_VARS*2
000182 02fc
         
          	.DW  0x01
000183 0001
          	.DW  _lcd_buffer
000184 02a2
          	.DW  _0*2
000185 011e
         
          	.DW  0x02
000186 0002
          	.DW  __base_y
000187 03af
          	.DW  _597*2
000188 011c
         
          	.DW  0
000189 0000
         
          __RESET:
00018a 94f8      	CLI
00018b 27ee      	CLR  R30
00018c bbec      	OUT  EECR,R30
         
         ;INTERRUPT VECTORS ARE PLACED
         ;AT THE START OF FLASH
00018d e0f1      	LDI  R31,1
00018e bffb      	OUT  GICR,R31
00018f bfeb      	OUT  GICR,R30
000190 bfe5      	OUT  MCUCR,R30
         
         ;DISABLE WATCHDOG
000191 e1f8      	LDI  R31,0x18
000192 bdf1      	OUT  WDTCR,R31
000193 bde1      	OUT  WDTCR,R30
         
         ;CLEAR R2-R14
000194 e08d      	LDI  R24,13
000195 e0a2      	LDI  R26,2
000196 27bb      	CLR  R27
          __CLEAR_REG:
000197 93ed      	ST   X+,R30
000198 958a      	DEC  R24
000199 f7e9      	BRNE __CLEAR_REG
         
         ;CLEAR SRAM
00019a e080      	LDI  R24,LOW(0x800)
00019b e098      	LDI  R25,HIGH(0x800)
00019c e6a0      	LDI  R26,0x60
          __CLEAR_SRAM:
00019d 93ed      	ST   X+,R30
00019e 9701      	SBIW R24,1
00019f f7e9      	BRNE __CLEAR_SRAM
         
         ;GLOBAL VARIABLES INITIALIZATION
0001a0 e0e0      	LDI  R30,LOW(__GLOBAL_INI_TBL*2)
0001a1 e0f3      	LDI  R31,HIGH(__GLOBAL_INI_TBL*2)
          __GLOBAL_INI_NEXT:
0001a2 9185      	LPM  R24,Z+
0001a3 9195      	LPM  R25,Z+
0001a4 9700      	SBIW R24,0
0001a5 f061      	BREQ __GLOBAL_INI_END
0001a6 91a5      	LPM  R26,Z+
0001a7 91b5      	LPM  R27,Z+
0001a8 9005      	LPM  R0,Z+
0001a9 9015      	LPM  R1,Z+
0001aa 01bf      	MOVW R22,R30
0001ab 01f0      	MOVW R30,R0
          __GLOBAL_INI_LOOP:
0001ac 9005      	LPM  R0,Z+
0001ad 920d      	ST   X+,R0
0001ae 9701      	SBIW R24,1
0001af f7e1      	BRNE __GLOBAL_INI_LOOP
0001b0 01fb      	MOVW R30,R22
0001b1 cff0      	RJMP __GLOBAL_INI_NEXT
          __GLOBAL_INI_END:
         
         ;STACK POINTER INITIALIZATION
0001b2 e5ef      	LDI  R30,LOW(0x85F)
0001b3 bfed      	OUT  SPL,R30
0001b4 e0e8      	LDI  R30,HIGH(0x85F)
0001b5 bfee      	OUT  SPH,R30
         
         ;DATA STACK POINTER INITIALIZATION
0001b6 e6c0      	LDI  R28,LOW(0x260)
0001b7 e0d2      	LDI  R29,HIGH(0x260)
         
0001b8 940c 1109 	JMP  _main
         
          	.ESEG
          	.ORG 0
          	.DB  0 ; FIRST EEPROM LOCATION NOT USED, SEE ATMEL ERRATA SHEETS
000000 00
         
          	.DSEG
          	.ORG 0x260
         ;       1 #define CH1_ON		DDRC.2=1;PORTC.2=1;
         ;       2 #define CH1_OFF	DDRC.2=1;PORTC.2=0;
         ;       3 
         ;       4 #define CH2_ON		DDRC.3=1;PORTC.3=1;
         ;       5 #define CH2_OFF	DDRC.3=1;PORTC.3=0;
         ;       6 
         ;       7 #define CH3_ON		DDRC.0=1;PORTC.0=1;
         ;       8 #define CH3_OFF	DDRC.0=1;PORTC.0=0;
         ;       9 
         ;      10 #define CH4_ON		DDRC.1=1;PORTC.1=1;
         ;      11 #define CH4_OFF	DDRC.1=1;PORTC.1=0;
         ;      12 
         ;      13 #define LCD_SIZE 40
         ;      14 
         ;      15 #include <mega32.h>
         ;      16 #include <delay.h>
         ;      17 #include <stdio.h> 
         ;      18 #include <Lcd_4+2.h>
         ;      19 #include <spi.h>
         ;      20 #include <math.h>    
         ;      21 #include "gran.c"
         ;      22 //-----------------------------------------------
         ;      23 void gran_ring_char(signed char *adr, signed char min, signed char max)
         ;      24 {
         
          	.CSEG
         ;      25 if (*adr<min) *adr=max;
         ;      26 if (*adr>max) *adr=min; 
         ;      27 } 
         ;      28  
         ;      29 //-----------------------------------------------
         ;      30 void gran_char(signed char *adr, signed char min, signed char max)
         ;      31 {
          _gran_char:
         ;      32 if (*adr<min) *adr=min;
0001ba 81aa      	LDD  R26,Y+2
0001bb 81bb      	LDD  R27,Y+2+1
0001bc 91ac      	LD   R26,X
0001bd 81e9      	LDD  R30,Y+1
0001be 17ae      	CP   R26,R30
0001bf f41c      	BRGE _0x5
0001c0 81aa      	LDD  R26,Y+2
0001c1 81bb      	LDD  R27,Y+2+1
0001c2 93ec      	ST   X,R30
         ;      33 if (*adr>max) *adr=max; 
          _0x5:
0001c3 81aa      	LDD  R26,Y+2
0001c4 81bb      	LDD  R27,Y+2+1
0001c5 91ac      	LD   R26,X
0001c6 81e8      	LD   R30,Y
0001c7 17ea      	CP   R30,R26
0001c8 f41c      	BRGE _0x6
0001c9 81aa      	LDD  R26,Y+2
0001ca 81bb      	LDD  R27,Y+2+1
0001cb 93ec      	ST   X,R30
         ;      34 } 
          _0x6:
0001cc 9624      	ADIW R28,4
0001cd 9508      	RET
         ;      35 
         ;      36 //-----------------------------------------------
         ;      37 void gran_char_ee(eeprom signed char  *adr, signed char min, signed char max)
         ;      38 {
         ;      39 if (*adr<min) *adr=min;
         ;      40 if (*adr>max) *adr=max; 
         ;      41 }
         ;      42 
         ;      43 //-----------------------------------------------
         ;      44 void gran_ring(signed int *adr, signed int min, signed int max)
         ;      45 {
         ;      46 if (*adr<min) *adr=max;
         ;      47 if (*adr>max) *adr=min; 
         ;      48 } 
         ;      49 
         ;      50 //-----------------------------------------------
         ;      51 void gran_ring_ee(eeprom signed int *adr, signed int min, signed int max)
         ;      52 {
         ;      53 if (*adr<min) *adr=max;
         ;      54 if (*adr>max) *adr=min; 
         ;      55 } 
         ;      56 //-----------------------------------------------
         ;      57 void gran(signed int *adr, signed int min, signed int max)
         ;      58 {
          _gran:
         ;      59 if (*adr<min) *adr=min;
0001ce 81ac      	LDD  R26,Y+4
0001cf 81bd      	LDD  R27,Y+4+1
0001d0 940e 169b 	CALL __GETW1P
0001d2 940e 1250 	CALL SUBOPT_0x0
0001d4 f434      	BRGE _0xD
0001d5 81ea      	LDD  R30,Y+2
0001d6 81fb      	LDD  R31,Y+2+1
0001d7 81ac      	LDD  R26,Y+4
0001d8 81bd      	LDD  R27,Y+4+1
0001d9 93ed      	ST   X+,R30
0001da 93fc      	ST   X,R31
         ;      60 if (*adr>max) *adr=max; 
          _0xD:
0001db 81ac      	LDD  R26,Y+4
0001dc 81bd      	LDD  R27,Y+4+1
0001dd 940e 169b 	CALL __GETW1P
0001df 940e 1256 	CALL SUBOPT_0x1
0001e1 f434      	BRGE _0xE
0001e2 81e8      	LD   R30,Y
0001e3 81f9      	LDD  R31,Y+1
0001e4 81ac      	LDD  R26,Y+4
0001e5 81bd      	LDD  R27,Y+4+1
0001e6 93ed      	ST   X+,R30
0001e7 93fc      	ST   X,R31
         ;      61 } 
          _0xE:
0001e8 c01a      	RJMP _0x25C
         ;      62 
         ;      63 
         ;      64 //-----------------------------------------------
         ;      65 void gran_ee(eeprom signed int  *adr, signed int min, signed int max)
         ;      66 {
          _gran_ee:
         ;      67 if (*adr<min) *adr=min;
0001e9 81ac      	LDD  R26,Y+4
0001ea 81bd      	LDD  R27,Y+4+1
0001eb 940e 16b0 	CALL __EEPROMRDW
0001ed 940e 1250 	CALL SUBOPT_0x0
0001ef f434      	BRGE _0xF
0001f0 81ea      	LDD  R30,Y+2
0001f1 81fb      	LDD  R31,Y+2+1
0001f2 81ac      	LDD  R26,Y+4
0001f3 81bd      	LDD  R27,Y+4+1
0001f4 940e 16c0 	CALL __EEPROMWRW
         ;      68 if (*adr>max) *adr=max; 
          _0xF:
0001f6 81ac      	LDD  R26,Y+4
0001f7 81bd      	LDD  R27,Y+4+1
0001f8 940e 16b0 	CALL __EEPROMRDW
0001fa 940e 1256 	CALL SUBOPT_0x1
0001fc f434      	BRGE _0x10
0001fd 81e8      	LD   R30,Y
0001fe 81f9      	LDD  R31,Y+1
0001ff 81ac      	LDD  R26,Y+4
000200 81bd      	LDD  R27,Y+4+1
000201 940e 16c0 	CALL __EEPROMWRW
         ;      69 }
          _0x10:
          _0x25C:
000203 9626      	ADIW R28,6
000204 9508      	RET
         ;      70 #include "ruslcd.c"
         ;      71 #ifndef  _rus_lcd_INCLUDED_
         ;      72 #define _rus_lcd_INCLUDED_ 
         ;      73 /*  ТАБЛИЦА СООТВЕТСТВИЯ
         ;      74 Число	Символ	Число	Символ	Число	Символ	Число	Символ	ЧислоСимвол
         ;      75 33	!	34	"	35	#	36	$	37	%
         ;      76 38	&	39	'	40	(	41	)	42	*
         ;      77 43	+	44	,	45	-	46	.	47	/
         ;      78 48	0	49	1	50	2	51	3	52	4
         ;      79 53	5	54	6	55	7	56	8	57	9
         ;      80 58	:	59	;	60	<	61	=	62	>
         ;      81 63	?	64	@	65	A	66	B	67	C
         ;      82 68	D	69	E	70	F	71	G	72	H
         ;      83 73	I	74	J	75	K	76	L	77	M
         ;      84 78	N	79	O	80	P	81	Q	82	R
         ;      85 83	S	84	T	85	U	86	V	87	W
         ;      86 88	X	89	Y	90	Z	91	[	92	\
         ;      87 93	]	94	^	95	_	96	`	97	a
         ;      88 98	b	99	c	100	d	101	e	102	f
         ;      89 103	g	104	h	105	I	106	j	107	k
         ;      90 108	l	109	m	110	n	111	o	112	p
         ;      91 113	q	114	r	115	s	116	t	117	u
         ;      92 118	v	119	w	120	x	121	y	122	z
         ;      93 123	{	124	|	125	}	126	~	132	"
         ;      94 133	…	145	'	146	'	147	"	148	"
         ;      95 149	o	150	-	151	-	153	™	166	¦
         ;      96 167	§	168	Ё	169	©	171	"	172	   
         ;      97 174	®	176	°	177	±	178	І	179	і
         ;      98 182		183	·	184	ё	185	№	187	"
         ;      99 192	А	193	Б	194	В	195	Г	196	Д
         ;     100 197	Е	198	Ж	199	З	200	И	201	Й
         ;     101 202	К	203	Л	204	М	205	Н	206	О
         ;     102 207	П	208	Р	209	С	210	Т	211	У
         ;     103 212	Ф	213	Х	214	Ц	215	Ч	216	Ш
         ;     104 217	Щ	218	Ъ	219	Ы	220	Ь	221	Э
         ;     105 222	Ю	223	Я	224	а	225	б	226	в
         ;     106 227	г	228	д	229	е	230	ж	231	з
         ;     107 232	и	233	й	234	к	235	л	236	м
         ;     108 237	н	238	о	239	п	240	р	241	с
         ;     109 242	т	243	у	244	ф	245	х	246	ц
         ;     110 247	ч	248	ш	249	щ	250	ъ	251	ы
         ;     111 252	ь	253	э	254	ю	255	я	-	-
         ;     112 */
         ;     113 const unsigned char rus_buff[]={                             // код буквы 
         ;     114 0xFD,0xa2,255 ,                                     //167-169
         ;     115 170 ,0xc8,172 ,173 ,174 ,175 ,176 ,177 ,0xd7,0x69,  //170-179
         ;     116 180 ,181 ,0xfe,0xdf,0xb5,0xcc,186 ,0xc9,188 ,189 ,  //180-189
         ;     117 190 ,191 ,0x41,0xa0,0x42,0xa1,0xe0,0x45,0xa3,0xa4,  //190-199
         ;     118 0xa5,0xa6,0x4b,0xa7,0x4d,0x48,0x4f,0xa8,0x50,0x43,  //200-209
         ;     119 0x54,0xa9,0xaa,0x58,0xe1,0xab,0xac,0xe2,0xad,0xae,  //210-219
         ;     120 0xc4,0xaf,0xb0,0xb1,0x61,0xb2,0xb3,0xb4,0xe3,0x65,  //220-229
         ;     121 0xb6,0xb7,0xb8,0xb9,0xba,0xbb,0xbc,0xbd,0x6f,0xbe,  //230-239
         ;     122 0x70,0x63,0xbf,0x79,0xaa,0x78,0xe5,0xc0,0xc1,0xe6,  //240-249
         ;     123 0xc2,0xc3,0xc4,0xc5,0xc6,0xc7};                     //250-255
         ;     124 //преобразование массива начинается с 167 символа
         ;     125 //десятичные цифры в буфере-это те символы, которые невозможно отображать на ЖКИ. 
         ;     126 //Их можно назначить по своему усмотрению.
         ;     127 //Например, сейчас (см выше) набрав на клавиатуре @ (код 169) на ЖКИ будет отображаться 
         ;     128 //чёрное знакоместо (код 0хFF (255десятичн.) )
         ;     129 /*
         ;     130 @- 0хFF
         ;     131 
         ;     132 */
         ;     133 void ruslcd (unsigned char *buff){
          _ruslcd:
         ;     134 unsigned char i;
         ;     135 i=0;
000205 9721      	SBIW R28,1
         ;	*buff -> Y+1
         ;	i -> Y+0
000206 e0e0      	LDI  R30,LOW(0)
000207 83e8      	ST   Y,R30
         ;     136 while ( buff[i]!=0 ) {
          _0x11:
000208 940e 125c 	CALL SUBOPT_0x2
00020a 91ec      	LD   R30,X
00020b 30e0      	CPI  R30,0
00020c f119      	BREQ _0x13
         ;     137 	if(buff[i]>166) buff[i]=rus_buff[buff[i]-167];
00020d 940e 125c 	CALL SUBOPT_0x2
00020f 91ac      	LD   R26,X
000210 eae6      	LDI  R30,LOW(166)
000211 17ea      	CP   R30,R26
000212 f4c8      	BRSH _0x14
000213 81e8      	LD   R30,Y
000214 81a9      	LDD  R26,Y+1
000215 81ba      	LDD  R27,Y+1+1
000216 e0f0      	LDI  R31,0
000217 0fea      	ADD  R30,R26
000218 1ffb      	ADC  R31,R27
000219 93ff      	PUSH R31
00021a 93ef      	PUSH R30
00021b e5e4      	LDI  R30,LOW(_rus_buff*2)
00021c e0f0      	LDI  R31,HIGH(_rus_buff*2)
00021d 93ff      	PUSH R31
00021e 93ef      	PUSH R30
00021f 940e 125c 	CALL SUBOPT_0x2
000221 91ec      	LD   R30,X
000222 5ae7      	SUBI R30,LOW(167)
000223 91af      	POP  R26
000224 91bf      	POP  R27
000225 e0f0      	LDI  R31,0
000226 0fea      	ADD  R30,R26
000227 1ffb      	ADC  R31,R27
000228 91e4      	LPM  R30,Z
000229 91af      	POP  R26
00022a 91bf      	POP  R27
00022b 93ec      	ST   X,R30
         ;     138 	i=i+1;}
          _0x14:
00022c 81e8      	LD   R30,Y
00022d 5fef      	SUBI R30,-LOW(1)
00022e 83e8      	ST   Y,R30
00022f cfd8      	RJMP _0x11
          _0x13:
         ;     139 	
         ;     140 /*	buff[0]=0x61;
         ;     141 	buff[1]=rus_buff[buff[1]-167];//0xb2;//rus_buff[buff[1]-167];
         ;     142 	buff[2]=0xb3;
         ;     143 	buff[3]=0xb4;*/
         ;     144 
         ;     145 }//end void  
000230 9623      	ADIW R28,3
000231 9508      	RET
         ;     146 #endif
         ;     147 #asm
         ;     148 	.equ __lcd_port=0x15
          	.equ __lcd_port=0x15
         ;     149 	.equ __lcd_cntr_port=0x12
          	.equ __lcd_cntr_port=0x12
         ;     150  	.equ __lcd_rs=6
           	.equ __lcd_rs=6
         ;     151   	.equ __lcd_en=7
            	.equ __lcd_en=7
         ;     152 #endasm 
         
         ;     153 
         ;     154 
         ;     155 //***********************************************
         ;     156 //Указатели
         ;     157 char 		*ptr_ram;
         
          	.DSEG
          _ptr_ram:
000260      	.BYTE 0x2
         ;     158 int 			*ptr_ram_int;
          _ptr_ram_int:
000262      	.BYTE 0x2
         ;     159 char flash 	*ptr_flash;
          _ptr_flash:
000264      	.BYTE 0x2
         ;     160 int eeprom	*ptr_eeprom_int;
          _ptr_eeprom_int:
000266      	.BYTE 0x2
         ;     161 unsigned int 	*adc_out;
          _adc_out:
000268      	.BYTE 0x2
         ;     162 
         ;     163 bit b100Hz,b10Hz,b5Hz,b2Hz,b1Hz;
         ;     164 bit l_but;		//идет длинное нажатие на кнопку
         ;     165 bit n_but;          //произошло нажатие
         ;     166 bit speed;		//разрешение ускорения перебора
         ;     167 bit zero_on;
         ;     168 bit bit_minus;
         ;     169 bit bAB;
         ;     170 bit bAN;
         ;     171 bit bAS1;
         ;     172 bit bAS2;
         ;     173 bit bFL2;
         ;     174 bit bFL__;
         ;     175 bit bI;
         ;     176 
         ;     177 enum char {iMn,iMn_,iCh,iSet,iBat,iSrc,iS2,iSetprl,iKprl,iDnd,iK,
         ;     178 	iSpcprl,iSpc,Grdy,Prdy,Iwrk,Gwrk,Pwrk,k,Crash_0,Crash_1,iKednd,
         ;     179 	iLoad,iSpc_prl_vz,iDeb,iKe,iVz,iAVAR,iStr,iVrs,iTstprl,iTst,iDebug,iDefault,iSet_st_prl}ind;
         ;     180 
         ;     181 
         ;     182 
         ;     183 
         ;     184 flash char char0[8]=
         
          	.CSEG
         ;     185 {
         ;     186 0b0001000,
         ;     187 0b0001100,
         ;     188 0b0001110,
         ;     189 0b0001111,
         ;     190 0b0001110,
         ;     191 0b0001100,
         ;     192 0b0001000,
         ;     193 0b0000000};
         ;     194 
         ;     195 flash char char1[8]=
         ;     196 {
         ;     197 0b0000110,
         ;     198 0b0001001,
         ;     199 0b0001001,
         ;     200 0b0000110,
         ;     201 0b0000000,
         ;     202 0b0000000,
         ;     203 0b0000000,
         ;     204 0b0000000};
         ;     205 
         ;     206 
         ;     207 flash char char2[8]=
         ;     208 {
         ;     209 0b00000,
         ;     210 0b00010,
         ;     211 0b00111,
         ;     212 0b01111,
         ;     213 0b11111,
         ;     214 0b11111,
         ;     215 0b01110,
         ;     216 0b00000};
         ;     217 
         ;     218 flash char char2_[8]=
         ;     219 {
         ;     220 0b00000,
         ;     221 0b00100,
         ;     222 0b01110,
         ;     223 0b11111,
         ;     224 0b11111,
         ;     225 0b11111,
         ;     226 0b01110,
         ;     227 0b00000};
         ;     228 
         ;     229 flash char char2__[8]=
         ;     230 {
         ;     231 0b00000,
         ;     232 0b01000,
         ;     233 0b11100,
         ;     234 0b11110,
         ;     235 0b11111,
         ;     236 0b11111,
         ;     237 0b01110,
         ;     238 0b00000};
         ;     239 
         ;     240 flash char char3[8]=
         ;     241 {
         ;     242 0b0000100,
         ;     243 0b0001110,
         ;     244 0b0011111,
         ;     245 0b0000000,
         ;     246 0b0000000,
         ;     247 0b0000000,
         ;     248 0b0000000,
         ;     249 0b0000000};
         ;     250 
         ;     251 flash char char4[8]=
         ;     252 {
         ;     253 0b00000,
         ;     254 0b00000,
         ;     255 0b01111,
         ;     256 0b01000,
         ;     257 0b01000,
         ;     258 0b01000,
         ;     259 0b01111,
         ;     260 0b00000};
         ;     261 
         ;     262 flash char char5[8]=
         ;     263 {
         ;     264 0b10000,
         ;     265 0b11000,
         ;     266 0b11111,
         ;     267 0b11001,
         ;     268 0b10001,
         ;     269 0b00001,
         ;     270 0b11111,
         ;     271 0b00000};
         ;     272 
         ;     273 
         ;     274 char but;
         ;     275 unsigned char parol[3];
         
          	.DSEG
          _parol:
00026a      	.BYTE 0x3
         ;     276 char dig[5];
          _dig:
00026d      	.BYTE 0x5
         ;     277 
         ;     278 char adc_cnt,adc_cnt1;
         ;     279 
         ;     280 enum {tstOFF,tstON,tstU} tst_state[10];
          _tst_state:
000272      	.BYTE 0x14
         ;     281 
         ;     282 
         ;     283 
         ;     284 signed char sub_ind,sub_ind1,index_set;
         ;     285 
         ;     286 char cnt_ibat,cnt_ubat;
          _cnt_ubat:
000286      	.BYTE 0x1
         ;     287 unsigned Fnet;
          _Fnet:
000287      	.BYTE 0x2
         ;     288 bit bFF,bFF_;
         ;     289 int Hz_out,Hz_cnt;
          _Hz_out:
000289      	.BYTE 0x2
          _Hz_cnt:
00028b      	.BYTE 0x2
         ;     290 char t0cnt0_;
          _t0cnt0_:
00028d      	.BYTE 0x1
         ;     291 unsigned long cnt_vz_sec,cnt_vz_sec_; 
          _cnt_vz_sec:
00028e      	.BYTE 0x4
          _cnt_vz_sec_:
000292      	.BYTE 0x4
         ;     292 signed zar_cnt;
          _zar_cnt:
000296      	.BYTE 0x2
         ;     293 char cnt_ind;
          _cnt_ind:
000298      	.BYTE 0x1
         ;     294 
         ;     295 char sound_pic,sound_tic,sound_cnt;
          _sound_pic:
000299      	.BYTE 0x1
          _sound_tic:
00029a      	.BYTE 0x1
          _sound_cnt:
00029b      	.BYTE 0x1
         ;     296 unsigned int av_beep,av_rele,av_stat;
          _av_beep:
00029c      	.BYTE 0x2
          _av_rele:
00029e      	.BYTE 0x2
          _av_stat:
0002a0      	.BYTE 0x2
         ;     297 //0 - сеть
         ;     298 //1 - батарея
         ;     299 //2 - ист1 больше
         ;     300 //3 - ист1 меньше
         ;     301 //4 - ист1 температура 
         ;     302 //5 - ист2 больше
         ;     303 //6 - ист3 меньше
         ;     304 //7 - ист4 температура 
         ;     305 
         ;     306 
         ;     307 char lcd_buffer[LCD_SIZE]={""};
          _lcd_buffer:
0002a2      	.BYTE 0x28
         ;     308 char dumm2[40];
          _dumm2:
0002ca      	.BYTE 0x28
         ;     309 char cnt_alias_blok;
          _cnt_alias_blok:
0002f2      	.BYTE 0x1
         ;     310 char star_cnt;
          _star_cnt:
0002f3      	.BYTE 0x1
         ;     311 
         ;     312 
         ;     313 
         ;     314 
         ;     315 
         ;     316 #include "ret.c"
         ;     317 char retind,retsub,retindsec;
          _retind:
0002f4      	.BYTE 0x1
          _retsub:
0002f5      	.BYTE 0x1
          _retindsec:
0002f6      	.BYTE 0x1
         ;     318 int retcnt,retcntsec;
          _retcnt:
0002f7      	.BYTE 0x2
          _retcntsec:
0002f9      	.BYTE 0x2
         ;     319 //-----------------------------------------------
         ;     320 void ret_ind(char r_i,char r_s,int r_c)
         ;     321 {
         
          	.CSEG
         ;     322 retcnt=r_c;
         ;     323 retind=r_i;
         ;     324 retsub=r_s;
         ;     325 }    
         ;     326 
         ;     327 //-----------------------------------------------
         ;     328 void ret_ind_hndl(void)
         ;     329 {
          _ret_ind_hndl:
         ;     330 if(retcnt)
000232 91e0 02f7 	LDS  R30,_retcnt
000234 91f0 02f8 	LDS  R31,_retcnt+1
000236 9730      	SBIW R30,0
000237 f079      	BREQ _0x15
         ;     331 	{
         ;     332 	if((--retcnt)==0)
000238 9731      	SBIW R30,1
000239 93e0 02f7 	STS  _retcnt,R30
00023b 93f0 02f8 	STS  _retcnt+1,R31
00023d 9730      	SBIW R30,0
00023e f441      	BRNE _0x16
         ;     333 		{
         ;     334  		ind=retind;
00023f 91e0 02f4 	LDS  R30,_retind
000241 e0f0      	LDI  R31,0
000242   +  	__PUTW1R 6,7
         ;     335    		sub_ind=retsub;
000244 90b0 02f5 	LDS  R11,_retsub
         ;     336    		index_set=sub_ind;
000246 2cdb      	MOV  R13,R11
         ;     337 	 	}
         ;     338      }
          _0x16:
         ;     339 }  
          _0x15:
000247 9508      	RET
         ;     340 
         ;     341 
         ;     342  
         ;     343 //---------------------------------------------
         ;     344 void ret_ind_sec(char r_i,int r_c)
         ;     345 {
         ;     346 retcntsec=r_c;
         ;     347 retindsec=r_i;
         ;     348 }
         ;     349 
         ;     350 //-----------------------------------------------
         ;     351 void ret_ind_sec_hndl(void)
         ;     352 {
         ;     353 if(retcntsec)
         ;     354  	{
         ;     355 	if((--retcntsec)==0)
         ;     356 	 	{
         ;     357  		ind=retindsec;
         ;     358  		sub_ind=0;
         ;     359 
         ;     360 	 	}
         ;     361    	}		
         ;     362 }   
         ;     363 
         ;     364 char bmm_cnt,bmp_cnt;
         
          	.DSEG
          _bmm_cnt:
0002fb      	.BYTE 0x1
          _bmp_cnt:
0002fc      	.BYTE 0x1
         ;     365 bit bS=1;
         ;     366 eeprom signed int K_t[4]={1000,1050,1100,1150};
         
          	.ESEG
          _K_t:
          	.DW  0x3E8,0x41A,0x44C,0x47E
000001 e8 03
000003 1a 04
000005 4c 04
000007 7e 04
         ;     367 eeprom signed int ee_wrk_time[4]={1000,1050,1100,1150};
          _ee_wrk_time:
          	.DW  0x3E8,0x41A,0x44C,0x47E
000009 e8 03
00000b 1a 04
00000d 4c 04
00000f 7e 04
         ;     368 eeprom signed int ee_time_mode[4]={1000,1050,1100,1150}; 
          _ee_time_mode:
          	.DW  0x3E8,0x41A,0x44C,0x47E
000011 e8 03
000013 1a 04
000015 4c 04
000017 7e 04
         ;     369 eeprom enum {wsOFF,wsON}wrk_state[4]={wsOFF,wsOFF,wsOFF,wsOFF}; 
          _wrk_state:
          	.DW  0x0,0x0,0x0,0x0
000019 00 00
00001b 00 00
00001d 00 00
00001f 00 00
         ;     370 eeprom signed int ee_wrk_time_cnt_5[4];
          _ee_wrk_time_cnt_5:
          	.DW  0x0
000021 00 00
          	.DW  0x0
000023 00 00
          	.DW  0x0
000025 00 00
          	.DW  0x0
000027 00 00
         ;     371 eeprom signed int t_ust[4];
          _t_ust:
          	.DW  0x0
000029 00 00
          	.DW  0x0
00002b 00 00
          	.DW  0x0
00002d 00 00
          	.DW  0x0
00002f 00 00
         ;     372 signed int wrk_time_cnt[4]={0,0,0,0};
         
          	.DSEG
          _wrk_time_cnt:
0002fd      	.BYTE 0x8
         ;     373 signed int wrk_time_cnt_sec[4]={0,0,0,0};
          _wrk_time_cnt_sec:
000305      	.BYTE 0x8
         ;     374 signed int wrk_time_cnt_flag[4]={0,0,0,0};
          _wrk_time_cnt_flag:
00030d      	.BYTE 0x8
         ;     375 signed nakal_cnt;
          _nakal_cnt:
000315      	.BYTE 0x2
         ;     376 signed Un,In;
          _Un:
000317      	.BYTE 0x2
          _In:
000319      	.BYTE 0x2
         ;     377 eeprom unsigned char ee_pwm;
         
          	.ESEG
          _ee_pwm:
          	.DB  0x0
000031 00
         ;     378 //eeprom signed ee_nagrev_time,ee_wrk_time,ee_ostiv_time;
         ;     379 
         ;     380 signed wrk_cnt;
         
          	.DSEG
          _wrk_cnt:
00031b      	.BYTE 0x2
         ;     381 eeprom signed Ku,Ki;
         
          	.ESEG
          _Ku:
          	.DW  0x0
000032 00 00
          _Ki:
          	.DW  0x0
000034 00 00
         ;     382 eeprom enum {im_1,im_2}ind_mode;
          _ind_mode:
          	.DW  0x0
000036 00 00
         ;     383 eeprom signed TIME_ust[4];
          _TIME_ust:
          	.DW  0x0
000038 00 00
          	.DW  0x0
00003a 00 00
          	.DW  0x0
00003c 00 00
          	.DW  0x0
00003e 00 00
         ;     384 signed time_wrks[4]; 
         
          	.DSEG
          _time_wrks:
00031d      	.BYTE 0x8
         ;     385 char ind_cnt;
          _ind_cnt:
000325      	.BYTE 0x1
         ;     386 signed int temper[4]; 
          _temper:
000326      	.BYTE 0x8
         ;     387 
         ;     388 
         ;     389 flash signed int temper_table[21]={5102,5614,6156,6747,7368,
         
          	.CSEG
         ;     390 							8028,
         ;     391 							8727,9466,10244,11062,11909,
         ;     392 							12805,13731,14696,15701,16745,
         ;     393 							17828,18942,20104,20961,22015};
         ;     394 
         ;     395 unsigned int adc_bank_[10];
         
          	.DSEG
          _adc_bank_:
00032e      	.BYTE 0x14
         ;     396 flash char const_of_adc[4]={0,3,2,1};
         
          	.CSEG
         ;     397 char nd[4]={0,0,0,0}; 
         
          	.DSEG
          _nd:
000342      	.BYTE 0x4
         ;     398 char out_st[4]={0,0,0,0};  
          _out_st:
000346      	.BYTE 0x4
         ;     399 char out_st_old[4]={0,0,0,0};
          _out_st_old:
00034a      	.BYTE 0x4
         ;     400 char cnt_block[4]={0,0,0,0};
          _cnt_block:
00034e      	.BYTE 0x4
         ;     401 char def_char_cnt; 
          _def_char_cnt:
000352      	.BYTE 0x1
         ;     402 
         ;     403 unsigned int adc_bank[10,4];
          _adc_bank:
000353      	.BYTE 0x50
         ;     404 char cnt_ind_nd; 
          _cnt_ind_nd:
0003a3      	.BYTE 0x1
         ;     405 //-----------------------------------------------
         ;     406 void start_process(char in)
         ;     407 {
         
          	.CSEG
          _start_process:
         ;     408 wrk_state[in]=wsON;
000248 940e 1263 	CALL SUBOPT_0x3
00024a e0e1      	LDI  R30,LOW(1)
00024b e0f0      	LDI  R31,HIGH(1)
00024c 940e 16c0 	CALL __EEPROMWRW
         ;     409 if(ee_time_mode[in]==0)wrk_time_cnt_flag[in]=1;
00024e 940e 126c 	CALL SUBOPT_0x4
000250 940e 16b0 	CALL __EEPROMRDW
000252 9730      	SBIW R30,0
000253 f429      	BRNE _0x19
000254 940e 1275 	CALL SUBOPT_0x5
000256 e0e1      	LDI  R30,LOW(1)
000257 e0f0      	LDI  R31,HIGH(1)
000258 c004      	RJMP _0x25D
         ;     410 else wrk_time_cnt_flag[in]=0;
          _0x19:
000259 940e 1275 	CALL SUBOPT_0x5
00025b e0e0      	LDI  R30,LOW(0)
00025c e0f0      	LDI  R31,HIGH(0)
          _0x25D:
00025d 93ed      	ST   X+,R30
00025e 93fc      	ST   X,R31
         ;     411 
         ;     412 wrk_time_cnt[in]=ee_wrk_time[in];
00025f 940e 127e 	CALL SUBOPT_0x6
000261 93ff      	PUSH R31
000262 93ef      	PUSH R30
000263 81e8      	LD   R30,Y
000264 940e 1287 	CALL SUBOPT_0x7
000266 91af      	POP  R26
000267 91bf      	POP  R27
000268 93ed      	ST   X+,R30
000269 93fc      	ST   X,R31
         ;     413 gran(&wrk_time_cnt[in],1,720);
00026a 940e 127e 	CALL SUBOPT_0x6
00026c 940e 1291 	CALL SUBOPT_0x8
00026e 940e 01ce 	CALL _gran
         ;     414 wrk_time_cnt_sec[in]=120;
000270 940e 129c 	CALL SUBOPT_0x9
000272 940e 12a5 	CALL SUBOPT_0xA
         ;     415 
         ;     416 ee_wrk_time_cnt_5[in]=wrk_time_cnt[in]; 
000274 940e 12ab 	CALL SUBOPT_0xB
000276 0fea      	ADD  R30,R26
000277 1ffb      	ADC  R31,R27
000278 93ff      	PUSH R31
000279 93ef      	PUSH R30
00027a 940e 12b1 	CALL SUBOPT_0xC
00027c 940e 169b 	CALL __GETW1P
00027e 91af      	POP  R26
00027f 91bf      	POP  R27
000280 940e 16c0 	CALL __EEPROMWRW
         ;     417 
         ;     418 cnt_block[in]=0;
000282 940e 12ba 	CALL SUBOPT_0xD
000284 e0e0      	LDI  R30,LOW(0)
000285 93ec      	ST   X,R30
         ;     419 }
000286 c0ec      	RJMP _0x25B
         ;     420 
         ;     421 //-----------------------------------------------
         ;     422 void stop_process(char in)
         ;     423 {
          _stop_process:
         ;     424 wrk_state[in]=wsOFF; 
000287 940e 1263 	CALL SUBOPT_0x3
000289 e0e0      	LDI  R30,LOW(0)
00028a e0f0      	LDI  R31,HIGH(0)
00028b 940e 16c0 	CALL __EEPROMWRW
         ;     425 
         ;     426 wrk_time_cnt[in]=0;
00028d 940e 12b1 	CALL SUBOPT_0xC
00028f e0e0      	LDI  R30,LOW(0)
000290 e0f0      	LDI  R31,HIGH(0)
000291 93ed      	ST   X+,R30
000292 93fc      	ST   X,R31
         ;     427 wrk_time_cnt_sec[in]=0;
000293 940e 129c 	CALL SUBOPT_0x9
000295 e0e0      	LDI  R30,LOW(0)
000296 e0f0      	LDI  R31,HIGH(0)
000297 93ed      	ST   X+,R30
000298 93fc      	ST   X,R31
         ;     428 }
000299 c0d9      	RJMP _0x25B
         ;     429 
         ;     430 //-----------------------------------------------
         ;     431 void restart_process(char in)
         ;     432 {
          _restart_process:
         ;     433 if(wrk_state[in]==wsON)
00029a 940e 1263 	CALL SUBOPT_0x3
00029c 940e 16b0 	CALL __EEPROMRDW
00029e 30e1      	CPI  R30,LOW(0x1)
00029f e0a0      	LDI  R26,HIGH(0x1)
0002a0 07fa      	CPC  R31,R26
0002a1 f541      	BRNE _0x1B
         ;     434 	{
         ;     435 	if(ee_time_mode[in]=0)wrk_time_cnt_flag[in]=1;
0002a2 940e 126c 	CALL SUBOPT_0x4
0002a4 e0e0      	LDI  R30,LOW(0)
0002a5 e0f0      	LDI  R31,HIGH(0)
0002a6 940e 16c0 	CALL __EEPROMWRW
0002a8 9730      	SBIW R30,0
0002a9 f029      	BREQ _0x1C
0002aa 940e 1275 	CALL SUBOPT_0x5
0002ac e0e1      	LDI  R30,LOW(1)
0002ad e0f0      	LDI  R31,HIGH(1)
0002ae c004      	RJMP _0x25E
         ;     436 	else wrk_time_cnt_flag[in]=0;
          _0x1C:
0002af 940e 1275 	CALL SUBOPT_0x5
0002b1 e0e0      	LDI  R30,LOW(0)
0002b2 e0f0      	LDI  R31,HIGH(0)
          _0x25E:
0002b3 93ed      	ST   X+,R30
0002b4 93fc      	ST   X,R31
         ;     437 	
         ;     438 	wrk_time_cnt[in]=ee_wrk_time_cnt_5[in];
0002b5 940e 127e 	CALL SUBOPT_0x6
0002b7 93ff      	PUSH R31
0002b8 93ef      	PUSH R30
0002b9 81e8      	LD   R30,Y
0002ba 940e 12ab 	CALL SUBOPT_0xB
0002bc 0fae      	ADD  R26,R30
0002bd 1fbf      	ADC  R27,R31
0002be 940e 16b0 	CALL __EEPROMRDW
0002c0 91af      	POP  R26
0002c1 91bf      	POP  R27
0002c2 93ed      	ST   X+,R30
0002c3 93fc      	ST   X,R31
         ;     439 	wrk_time_cnt_sec[in]=120;
0002c4 940e 129c 	CALL SUBOPT_0x9
0002c6 e7e8      	LDI  R30,LOW(120)
0002c7 e0f0      	LDI  R31,HIGH(120)
0002c8 93ed      	ST   X+,R30
0002c9 93fc      	ST   X,R31
         ;     440 	}
         ;     441 }
          _0x1B:
0002ca c0a8      	RJMP _0x25B
         ;     442 
         ;     443 //-----------------------------------------------
         ;     444 void wrk_process(char in)
         ;     445 {
          _wrk_process:
         ;     446 if(cnt_block[in])cnt_block[in]--;
0002cb 940e 12bf 	CALL SUBOPT_0xE
0002cd f029      	BREQ _0x1E
0002ce 940e 12ba 	CALL SUBOPT_0xD
0002d0 91ec      	LD   R30,X
0002d1 50e1      	SUBI R30,LOW(1)
0002d2 93ec      	ST   X,R30
         ;     447 if(wrk_state[in]==wsON)
          _0x1E:
0002d3 940e 1263 	CALL SUBOPT_0x3
0002d5 940e 16b0 	CALL __EEPROMRDW
0002d7 30e1      	CPI  R30,LOW(0x1)
0002d8 e0a0      	LDI  R26,HIGH(0x1)
0002d9 07fa      	CPC  R31,R26
0002da f561      	BRNE _0x1F
         ;     448 	{
         ;     449 	if(temper[in]<(t_ust[in]))
0002db 940e 12c6 	CALL SUBOPT_0xF
0002dd 93ff      	PUSH R31
0002de 93ef      	PUSH R30
0002df 940e 12d1 	CALL SUBOPT_0x10
0002e1 91af      	POP  R26
0002e2 91bf      	POP  R27
0002e3 17ae      	CP   R26,R30
0002e4 07bf      	CPC  R27,R31
0002e5 f444      	BRGE _0x20
         ;     450 		{
         ;     451 		if(!cnt_block[in])
0002e6 940e 12bf 	CALL SUBOPT_0xE
0002e8 f421      	BRNE _0x21
         ;     452 			{
         ;     453 			out_st[in]=1;
0002e9 940e 12dc 	CALL SUBOPT_0x11
0002eb e0e1      	LDI  R30,LOW(1)
0002ec 93ec      	ST   X,R30
         ;     454 			}
         ;     455 		}
          _0x21:
         ;     456 	else if(temper[in]>=(t_ust[in]))
0002ed c018      	RJMP _0x22
          _0x20:
0002ee 940e 12c6 	CALL SUBOPT_0xF
0002f0 93ff      	PUSH R31
0002f1 93ef      	PUSH R30
0002f2 940e 12d1 	CALL SUBOPT_0x10
0002f4 91af      	POP  R26
0002f5 91bf      	POP  R27
0002f6 17ae      	CP   R26,R30
0002f7 07bf      	CPC  R27,R31
0002f8 f06c      	BRLT _0x23
         ;     457 		{
         ;     458 		if(!cnt_block[in])
0002f9 940e 12bf 	CALL SUBOPT_0xE
0002fb f421      	BRNE _0x24
         ;     459 			{
         ;     460 			out_st[in]=0;
0002fc 940e 12dc 	CALL SUBOPT_0x11
0002fe e0e0      	LDI  R30,LOW(0)
0002ff 93ec      	ST   X,R30
         ;     461 			}
         ;     462 		wrk_time_cnt_flag[in]=1;
          _0x24:
000300 940e 1275 	CALL SUBOPT_0x5
000302 e0e1      	LDI  R30,LOW(1)
000303 e0f0      	LDI  R31,HIGH(1)
000304 93ed      	ST   X+,R30
000305 93fc      	ST   X,R31
         ;     463 		}		
         ;     464 	}
          _0x23:
          _0x22:
         ;     465 else out_st[in]=0; 
000306 c004      	RJMP _0x25
          _0x1F:
000307 940e 12dc 	CALL SUBOPT_0x11
000309 e0e0      	LDI  R30,LOW(0)
00030a 93ec      	ST   X,R30
          _0x25:
         ;     466 
         ;     467 if(out_st[in]!=out_st_old[in])cnt_block[in]=20;
00030b 940e 12e1 	CALL SUBOPT_0x12
00030d 93ef      	PUSH R30
00030e 940e 12e7 	CALL SUBOPT_0x13
000310 81e0      	LD   R30,Z
000311 91af      	POP  R26
000312 17ea      	CP   R30,R26
000313 f021      	BREQ _0x26
000314 940e 12ba 	CALL SUBOPT_0xD
000316 e1e4      	LDI  R30,LOW(20)
000317 93ec      	ST   X,R30
         ;     468 
         ;     469 out_st_old[in]=out_st[in];
          _0x26:
000318 940e 12e7 	CALL SUBOPT_0x13
00031a 93ff      	PUSH R31
00031b 93ef      	PUSH R30
00031c 940e 12e1 	CALL SUBOPT_0x12
00031e 91af      	POP  R26
00031f 91bf      	POP  R27
000320 93ec      	ST   X,R30
         ;     470 
         ;     471 
         ;     472 if((ee_time_mode[in]==0)||(wrk_time_cnt_flag[in]==1))
000321 940e 126c 	CALL SUBOPT_0x4
000323 940e 16b0 	CALL __EEPROMRDW
000325 9730      	SBIW R30,0
000326 f049      	BREQ _0x28
000327 940e 1275 	CALL SUBOPT_0x5
000329 940e 169b 	CALL __GETW1P
00032b 30e1      	CPI  R30,LOW(0x1)
00032c e0a0      	LDI  R26,HIGH(0x1)
00032d 07fa      	CPC  R31,R26
00032e f009      	BREQ _0x28
00032f c043      	RJMP _0x27
          _0x28:
         ;     473 	{
         ;     474 	if(wrk_time_cnt_sec[in])
000330 940e 129c 	CALL SUBOPT_0x9
000332 940e 169b 	CALL __GETW1P
000334 9730      	SBIW R30,0
000335 f1e9      	BREQ _0x2A
         ;     475 		{
         ;     476 		wrk_time_cnt_sec[in]--;
000336 940e 129c 	CALL SUBOPT_0x9
000338 940e 12ec 	CALL SUBOPT_0x14
         ;     477 		if(wrk_time_cnt_sec[in]==0)
00033a 940e 129c 	CALL SUBOPT_0x9
00033c 940e 169b 	CALL __GETW1P
00033e 9730      	SBIW R30,0
00033f f599      	BRNE _0x2B
         ;     478 			{
         ;     479 			if(wrk_time_cnt[in])
000340 940e 12b1 	CALL SUBOPT_0xC
000342 940e 169b 	CALL __GETW1P
000344 9730      	SBIW R30,0
000345 f149      	BREQ _0x2C
         ;     480 				{
         ;     481 				wrk_time_cnt_sec[in]=120;
000346 940e 129c 	CALL SUBOPT_0x9
000348 940e 12a5 	CALL SUBOPT_0xA
         ;     482 				wrk_time_cnt[in]--;
00034a 940e 12f2 	CALL SUBOPT_0x15
00034c 940e 12ec 	CALL SUBOPT_0x14
         ;     483 				if((wrk_time_cnt[in]%5)==0)
00034e 940e 12b1 	CALL SUBOPT_0xC
000350 940e 169b 	CALL __GETW1P
000352 01df      	MOVW R26,R30
000353 e0e5      	LDI  R30,LOW(5)
000354 e0f0      	LDI  R31,HIGH(5)
000355 940e 166c 	CALL __MODW21
000357 9730      	SBIW R30,0
000358 f479      	BRNE _0x2D
         ;     484 					{
         ;     485 					ee_wrk_time_cnt_5[in]=wrk_time_cnt[in];
000359 81e8      	LD   R30,Y
00035a 940e 12ab 	CALL SUBOPT_0xB
00035c 0fea      	ADD  R30,R26
00035d 1ffb      	ADC  R31,R27
00035e 93ff      	PUSH R31
00035f 93ef      	PUSH R30
000360 940e 12b1 	CALL SUBOPT_0xC
000362 940e 169b 	CALL __GETW1P
000364 91af      	POP  R26
000365 91bf      	POP  R27
000366 940e 16c0 	CALL __EEPROMWRW
         ;     486 					} 
         ;     487 				if(wrk_time_cnt[in]==0)
          _0x2D:
000368 940e 12b1 	CALL SUBOPT_0xC
00036a 940e 169b 	CALL __GETW1P
00036c 9730      	SBIW R30,0
00036d f401      	BRNE _0x2E
         ;     488 					{
         ;     489 					
         ;     490 					}					
         ;     491 				}
          _0x2E:
         ;     492 			else 
00036e c004      	RJMP _0x2F
          _0x2C:
         ;     493 				{
         ;     494 				stop_process(in);
00036f 81e8      	LD   R30,Y
000370 93ea      	ST   -Y,R30
000371 940e 0287 	CALL _stop_process
         ;     495 				}
          _0x2F:
         ;     496 			}
         ;     497 		}
          _0x2B:
         ;     498 	}
          _0x2A:
         ;     499 
         ;     500 }
          _0x27:
          _0x25B:
000373 9621      	ADIW R28,1
000374 9508      	RET
         ;     501 
         ;     502 //-----------------------------------------------
         ;     503 void out_drv(void)
         ;     504 {
          _out_drv:
         ;     505 if(out_st[0])
000375 91e0 0346 	LDS  R30,_out_st
000377 30e0      	CPI  R30,0
000378 f019      	BREQ _0x30
         ;     506 	{
         ;     507 	CH1_ON
000379 9aa2      	SBI  0x14,2
00037a 9aaa      	SBI  0x15,2
         ;     508 	}
         ;     509 else 
00037b c002      	RJMP _0x31
          _0x30:
         ;     510 	{
         ;     511 	CH1_OFF
00037c 9aa2      	SBI  0x14,2
00037d 98aa      	CBI  0x15,2
         ;     512 	}	
          _0x31:
         ;     513 	
         ;     514 if(out_st[1])
00037e   +  	__GETB1MN _out_st,1
000380 30e0      	CPI  R30,0
000381 f019      	BREQ _0x32
         ;     515 	{
         ;     516 	CH2_ON
000382 9aa3      	SBI  0x14,3
000383 9aab      	SBI  0x15,3
         ;     517 	}
         ;     518 else 
000384 c002      	RJMP _0x33
          _0x32:
         ;     519 	{
         ;     520 	CH2_OFF
000385 9aa3      	SBI  0x14,3
000386 98ab      	CBI  0x15,3
         ;     521 	}	
          _0x33:
         ;     522 	
         ;     523 if(out_st[2])
000387   +  	__GETB1MN _out_st,2
000389 30e0      	CPI  R30,0
00038a f019      	BREQ _0x34
         ;     524 	{
         ;     525 	CH3_ON
00038b 9aa0      	SBI  0x14,0
00038c 9aa8      	SBI  0x15,0
         ;     526 	}
         ;     527 else 
00038d c002      	RJMP _0x35
          _0x34:
         ;     528 	{
         ;     529 	CH3_OFF
00038e 9aa0      	SBI  0x14,0
00038f 98a8      	CBI  0x15,0
         ;     530 	}	
          _0x35:
         ;     531 	
         ;     532 if(out_st[3])
000390   +  	__GETB1MN _out_st,3
000392 30e0      	CPI  R30,0
000393 f019      	BREQ _0x36
         ;     533 	{
         ;     534 	CH4_ON
000394 9aa1      	SBI  0x14,1
000395 9aa9      	SBI  0x15,1
         ;     535 	}
         ;     536 else 
000396 c002      	RJMP _0x37
          _0x36:
         ;     537 	{
         ;     538 	CH4_OFF
000397 9aa1      	SBI  0x14,1
000398 98a9      	CBI  0x15,1
         ;     539 	}				
          _0x37:
         ;     540 }
000399 9508      	RET
         ;     541 		
         ;     542 //-----------------------------------------------
         ;     543 void adc_drv(void)
         ;     544 {
          _adc_drv:
         ;     545 char i;
         ;     546 char temp;
         ;     547 unsigned int tempUI,tempUI_;
         ;     548 
         ;     549 tempUI=ADCW;
00039a 940e 16e0 	CALL __SAVELOCR6
         ;	i -> R16
         ;	temp -> R17
         ;	tempUI -> R18,R19
         ;	tempUI_ -> R20,R21
00039c   +  	__INWR 18,19,4
         ;     550 
         ;     551 for (i=0;i<4;i++)
00039e e000      	LDI  R16,LOW(0)
          _0x39:
00039f 3004      	CPI  R16,4
0003a0 f4d0      	BRSH _0x3A
         ;     552 	{
         ;     553 	adc_bank[adc_cnt,i]+=tempUI;
0003a1 940e 12fa 	CALL SUBOPT_0x16
0003a3 93bf      	PUSH R27
0003a4 93af      	PUSH R26
0003a5 940e 15dd 	CALL __LSLW3
0003a7 91af      	POP  R26
0003a8 91bf      	POP  R27
0003a9 0fae      	ADD  R26,R30
0003aa 1fbf      	ADC  R27,R31
0003ab 2fe0      	MOV  R30,R16
0003ac 940e 12ff 	CALL SUBOPT_0x17
0003ae 93ff      	PUSH R31
0003af 93ef      	PUSH R30
0003b0 01df      	MOVW R26,R30
0003b1 940e 169b 	CALL __GETW1P
0003b3 0fe2      	ADD  R30,R18
0003b4 1ff3      	ADC  R31,R19
0003b5 91af      	POP  R26
0003b6 91bf      	POP  R27
0003b7 93ed      	ST   X+,R30
0003b8 93fc      	ST   X,R31
         ;     554 	}   
0003b9 5f0f      	SUBI R16,-1
0003ba cfe4      	RJMP _0x39
          _0x3A:
         ;     555 
         ;     556 
         ;     557 if((adc_cnt1&0x03)==0)  
0003bb 2dea      	MOV  R30,R10
0003bc 70e3      	ANDI R30,LOW(0x3)
0003bd f561      	BRNE _0x3B
         ;     558 	{
         ;     559   	temp=(adc_cnt1&0x0c)>>2;
0003be 2dea      	MOV  R30,R10
0003bf 70ec      	ANDI R30,LOW(0xC)
0003c0 95e6      	LSR  R30
0003c1 95e6      	LSR  R30
0003c2 2f1e      	MOV  R17,R30
         ;     560     	adc_bank_[adc_cnt]=(adc_bank[adc_cnt,temp])/16;
0003c3 2de9      	MOV  R30,R9
0003c4 e2ae      	LDI  R26,LOW(_adc_bank_)
0003c5 e0b3      	LDI  R27,HIGH(_adc_bank_)
0003c6 940e 12ff 	CALL SUBOPT_0x17
0003c8 93ff      	PUSH R31
0003c9 93ef      	PUSH R30
0003ca 940e 12fa 	CALL SUBOPT_0x16
0003cc 93bf      	PUSH R27
0003cd 93af      	PUSH R26
0003ce 940e 15dd 	CALL __LSLW3
0003d0 91af      	POP  R26
0003d1 91bf      	POP  R27
0003d2 940e 1305 	CALL SUBOPT_0x18
0003d4 940e 169b 	CALL __GETW1P
0003d6 940e 15e4 	CALL __LSRW4
0003d8 91af      	POP  R26
0003d9 91bf      	POP  R27
0003da 93ed      	ST   X+,R30
0003db 93fc      	ST   X,R31
         ;     561      adc_bank[adc_cnt,temp]=0;
0003dc 940e 12fa 	CALL SUBOPT_0x16
0003de 93bf      	PUSH R27
0003df 93af      	PUSH R26
0003e0 940e 15dd 	CALL __LSLW3
0003e2 91af      	POP  R26
0003e3 91bf      	POP  R27
0003e4 940e 1305 	CALL SUBOPT_0x18
0003e6 e0e0      	LDI  R30,LOW(0)
0003e7 e0f0      	LDI  R31,HIGH(0)
0003e8 93ed      	ST   X+,R30
0003e9 93fc      	ST   X,R31
         ;     562    	} 		
         ;     563         
         ;     564 if((++adc_cnt)>=4)
          _0x3B:
0003ea 9493      	INC  R9
0003eb e0e4      	LDI  R30,LOW(4)
0003ec 169e      	CP   R9,R30
0003ed f030      	BRLO _0x3C
         ;     565 	{
         ;     566 	adc_cnt=0;
0003ee 2499      	CLR  R9
         ;     567 	if((++adc_cnt1)>=16)
0003ef 94a3      	INC  R10
0003f0 e1e0      	LDI  R30,LOW(16)
0003f1 16ae      	CP   R10,R30
0003f2 f008      	BRLO _0x3D
         ;     568 		{
         ;     569   		adc_cnt1=0;
0003f3 24aa      	CLR  R10
         ;     570   		}   
         ;     571 	}         
          _0x3D:
         ;     572 
         ;     573 DDRA&=0b00001111;
          _0x3C:
0003f4 b3ea      	IN   R30,0x1A
0003f5 70ef      	ANDI R30,LOW(0xF)
0003f6 bbea      	OUT  0x1A,R30
         ;     574 PORTA&=0b00001111;
0003f7 b3eb      	IN   R30,0x1B
0003f8 70ef      	ANDI R30,LOW(0xF)
0003f9 bbeb      	OUT  0x1B,R30
         ;     575 
         ;     576 ADMUX=0b01000000|(4+adc_cnt);
0003fa 2de9      	MOV  R30,R9
0003fb 5fec      	SUBI R30,-LOW(4)
0003fc 64e0      	ORI  R30,0x40
0003fd b9e7      	OUT  0x7,R30
         ;     577 SFIOR&=0b00011111;
0003fe b7e0      	IN   R30,0x30
0003ff 71ef      	ANDI R30,LOW(0x1F)
000400 bfe0      	OUT  0x30,R30
         ;     578 ADCSRA=0b10100110;
000401 eae6      	LDI  R30,LOW(166)
000402 b9e6      	OUT  0x6,R30
         ;     579 ADCSRA|=0b01000000;  
000403 9a36      	SBI  0x6,6
         ;     580     
         ;     581 }
000404 940e 16e7 	CALL __LOADLOCR6
000406 9626      	ADIW R28,6
000407 9508      	RET
         ;     582 
         ;     583 //-----------------------------------------------
         ;     584 void define_char(char flash *pc,char ch_c)
         ;     585 {
          _define_char:
         ;     586 char i,aaaa;
         ;     587 aaaa=(ch_c<<3)|0x40;
000408 931a      	ST   -Y,R17
000409 930a      	ST   -Y,R16
         ;	*pc -> Y+3
         ;	ch_c -> Y+2
         ;	i -> R16
         ;	aaaa -> R17
00040a 81ea      	LDD  R30,Y+2
00040b 940e 16dc 	CALL __LSLB3
00040d 64e0      	ORI  R30,0x40
00040e 2f1e      	MOV  R17,R30
         ;     588 for (i=0; i<8; i++) lcd_write_byte(aaaa++,*pc++);
00040f e000      	LDI  R16,LOW(0)
          _0x3F:
000410 3008      	CPI  R16,8
000411 f470      	BRSH _0x40
000412 931a      	ST   -Y,R17
000413 9513      	INC  R17
000414 81ec      	LDD  R30,Y+4
000415 81fd      	LDD  R31,Y+4+1
000416 9631      	ADIW R30,1
000417 83ec      	STD  Y+4,R30
000418 83fd      	STD  Y+4+1,R31
000419 9731      	SBIW R30,1
00041a 91e4      	LPM  R30,Z
00041b 93ea      	ST   -Y,R30
00041c 940e 11c4 	CALL _lcd_write_byte
00041e 5f0f      	SUBI R16,-1
00041f cff0      	RJMP _0x3F
          _0x40:
         ;     589 }
000420 8119      	LDD  R17,Y+1
000421 8108      	LDD  R16,Y+0
000422 9625      	ADIW R28,5
000423 9508      	RET
         ;     590 
         ;     591 //-----------------------------------------------
         ;     592 void simbol_define(void)
         ;     593 {
          _simbol_define:
         ;     594 #asm("cli")
000424 94f8      	cli
         ;     595 //PORTD|=0b11111010;
         ;     596 //DDRD|=0b11111010;
         ;     597 delay_us(10);
000425   +  	__DELAY_USB 27
         ;     598 define_char(char0,1);
000428 eaee      	LDI  R30,LOW(_char0*2)
000429 e0f0      	LDI  R31,HIGH(_char0*2)
00042a 93fa      	ST   -Y,R31
00042b 93ea      	ST   -Y,R30
00042c e0e1      	LDI  R30,LOW(1)
00042d 93ea      	ST   -Y,R30
00042e 940e 0408 	CALL _define_char
         ;     599 define_char(char1,2);
000430 ebe6      	LDI  R30,LOW(_char1*2)
000431 e0f0      	LDI  R31,HIGH(_char1*2)
000432 93fa      	ST   -Y,R31
000433 93ea      	ST   -Y,R30
000434 e0e2      	LDI  R30,LOW(2)
000435 93ea      	ST   -Y,R30
000436 940e 0408 	CALL _define_char
         ;     600 if(def_char_cnt==0)define_char(char2,3);
000438 91e0 0352 	LDS  R30,_def_char_cnt
00043a 30e0      	CPI  R30,0
00043b f419      	BRNE _0x41
00043c 940e 130e 	CALL SUBOPT_0x19
         ;     601 else if(def_char_cnt==1)define_char(char2_,3);
00043e c03e      	RJMP _0x42
          _0x41:
00043f 91a0 0352 	LDS  R26,_def_char_cnt
000441 30a1      	CPI  R26,LOW(0x1)
000442 f419      	BRNE _0x43
000443 940e 1316 	CALL SUBOPT_0x1A
         ;     602 else if(def_char_cnt==2)define_char(char2__,3);
000445 c037      	RJMP _0x44
          _0x43:
000446 91a0 0352 	LDS  R26,_def_char_cnt
000448 30a2      	CPI  R26,LOW(0x2)
000449 f419      	BRNE _0x45
00044a 940e 131e 	CALL SUBOPT_0x1B
         ;     603 else if(def_char_cnt==3)define_char(char2_,3);
00044c c030      	RJMP _0x46
          _0x45:
00044d 91a0 0352 	LDS  R26,_def_char_cnt
00044f 30a3      	CPI  R26,LOW(0x3)
000450 f419      	BRNE _0x47
000451 940e 1316 	CALL SUBOPT_0x1A
         ;     604 else if(def_char_cnt==4)define_char(char2,3);
000453 c029      	RJMP _0x48
          _0x47:
000454 91a0 0352 	LDS  R26,_def_char_cnt
000456 30a4      	CPI  R26,LOW(0x4)
000457 f419      	BRNE _0x49
000458 940e 130e 	CALL SUBOPT_0x19
         ;     605 else if(def_char_cnt==5)define_char(char2_,3);
00045a c022      	RJMP _0x4A
          _0x49:
00045b 91a0 0352 	LDS  R26,_def_char_cnt
00045d 30a5      	CPI  R26,LOW(0x5)
00045e f419      	BRNE _0x4B
00045f 940e 1316 	CALL SUBOPT_0x1A
         ;     606 else if(def_char_cnt==6)define_char(char2,3);
000461 c01b      	RJMP _0x4C
          _0x4B:
000462 91a0 0352 	LDS  R26,_def_char_cnt
000464 30a6      	CPI  R26,LOW(0x6)
000465 f419      	BRNE _0x4D
000466 940e 130e 	CALL SUBOPT_0x19
         ;     607 else if(def_char_cnt==7)define_char(char2__,3);
000468 c014      	RJMP _0x4E
          _0x4D:
000469 91a0 0352 	LDS  R26,_def_char_cnt
00046b 30a7      	CPI  R26,LOW(0x7)
00046c f419      	BRNE _0x4F
00046d 940e 131e 	CALL SUBOPT_0x1B
         ;     608 else if(def_char_cnt==8)define_char(char2_,3);
00046f c00d      	RJMP _0x50
          _0x4F:
000470 91a0 0352 	LDS  R26,_def_char_cnt
000472 30a8      	CPI  R26,LOW(0x8)
000473 f419      	BRNE _0x51
000474 940e 1316 	CALL SUBOPT_0x1A
         ;     609 else if(def_char_cnt==9)define_char(char2,3);
000476 c006      	RJMP _0x52
          _0x51:
000477 91a0 0352 	LDS  R26,_def_char_cnt
000479 30a9      	CPI  R26,LOW(0x9)
00047a f411      	BRNE _0x53
00047b 940e 130e 	CALL SUBOPT_0x19
         ;     610 define_char(char3,4); 
          _0x53:
          _0x52:
          _0x50:
          _0x4E:
          _0x4C:
          _0x4A:
          _0x48:
          _0x46:
          _0x44:
          _0x42:
00047d ede6      	LDI  R30,LOW(_char3*2)
00047e e0f0      	LDI  R31,HIGH(_char3*2)
00047f 93fa      	ST   -Y,R31
000480 93ea      	ST   -Y,R30
000481 e0e4      	LDI  R30,LOW(4)
000482 93ea      	ST   -Y,R30
000483 940e 0408 	CALL _define_char
         ;     611 define_char(char4,5);
000485 edee      	LDI  R30,LOW(_char4*2)
000486 e0f0      	LDI  R31,HIGH(_char4*2)
000487 93fa      	ST   -Y,R31
000488 93ea      	ST   -Y,R30
000489 e0e5      	LDI  R30,LOW(5)
00048a 93ea      	ST   -Y,R30
00048b 940e 0408 	CALL _define_char
         ;     612 define_char(char5,6); 
00048d eee6      	LDI  R30,LOW(_char5*2)
00048e e0f0      	LDI  R31,HIGH(_char5*2)
00048f 93fa      	ST   -Y,R31
000490 93ea      	ST   -Y,R30
000491 e0e6      	LDI  R30,LOW(6)
000492 93ea      	ST   -Y,R30
000493 940e 0408 	CALL _define_char
         ;     613 delay_us(10);
000495   +  	__DELAY_USB 27
         ;     614 //PORTD|=0b11111010;
         ;     615 //DDRD|=0b11111010;
         ;     616 #asm("sei")
000498 9478      	sei
         ;     617 }
000499 9508      	RET
         ;     618 
         ;     619 //-----------------------------------------------
         ;     620 void lcd_out(void)
         ;     621 {
          _lcd_out:
         ;     622 #asm("cli")
00049a 94f8      	cli
         ;     623 //PORTD|=0b11111010;
         ;     624 //DDRD|=0b11111010;
         ;     625 delay_us(10);
00049b   +  	__DELAY_USB 27
         ;     626 lcd_gotoxy(0,0);
00049e e0e0      	LDI  R30,LOW(0)
00049f 940e 1326 	CALL SUBOPT_0x1C
0004a1 940e 11cf 	CALL _lcd_gotoxy
         ;     627 lcd_puts(lcd_buffer);
0004a3 eae2      	LDI  R30,LOW(_lcd_buffer)
0004a4 e0f2      	LDI  R31,HIGH(_lcd_buffer)
0004a5 93fa      	ST   -Y,R31
0004a6 93ea      	ST   -Y,R30
0004a7 940e 1220 	CALL _lcd_puts
         ;     628 delay_us(10);
0004a9   +  	__DELAY_USB 27
         ;     629 //PORTD|=0b11111010;
         ;     630 //DDRD|=0b11111010;
         ;     631 #asm("sei")
0004ac 9478      	sei
         ;     632 }
0004ad 9508      	RET
         ;     633 
         ;     634 //-----------------------------------------------
         ;     635 void out_out(void)
         ;     636 { 
         ;     637 
         ;     638 }
         ;     639 
         ;     640 //-----------------------------------------------
         ;     641 void parol_init(void)
         ;     642 {
         ;     643 parol[0]=0;
         ;     644 parol[1]=0;
         ;     645 parol[2]=0;
         ;     646 sub_ind=0;
         ;     647 }
         ;     648 
         ;     649 //-----------------------------------------------
         ;     650 int Imat(int in,int k0,int k1)
         ;     651 {
         ;     652 signed long int temp;
         ;     653 temp= in-k0;
         ;	in -> Y+8
         ;	k0 -> Y+6
         ;	k1 -> Y+4
         ;	temp -> Y+0
         ;     654 if(temp<0) temp=0;
         ;     655 temp*=k1;
         ;     656 temp/=100L;
         ;     657 return (int)temp;
         ;     658 }
         ;     659 
         ;     660 //-----------------------------------------------
         ;     661 int Ibmat(int in,int k0,int k1)
         ;     662 {
         ;     663 signed long int temp;
         ;     664 temp= in-k0;
         ;	in -> Y+8
         ;	k0 -> Y+6
         ;	k1 -> Y+4
         ;	temp -> Y+0
         ;     665 if(temp<0)
         ;     666 	{ 
         ;     667 	temp=-temp;
         ;     668 	bit_minus=1;
         ;     669 	}
         ;     670 else bit_minus=0;	
         ;     671 temp*=k1;
         ;     672 temp/=160L;
         ;     673 return (int)temp;
         ;     674 }
         ;     675 
         ;     676 
         ;     677 //-----------------------------------------------
         ;     678 void matemat(void)
         ;     679 { 
          _matemat:
         ;     680 signed long int temp_SL,temp_SL1;
         ;     681 char temp,i,ii;
         ;     682 
         ;     683 /*for(i=0;i<4;i++)
         ;     684 	{ 
         ;     685 	temp_SL=(signed long)adc_bank_[const_of_adc[i]];
         ;     686 	
         ;     687 	if((temp_SL<200)||(temp_SL>800))nd[i]=1;
         ;     688 	else nd[i]=0;
         ;     689 	
         ;     690 	temp_SL*=(signed long)(10000+K_t[i]);
         ;     691 	
         ;     692 	temp_SL1=10240000L-temp_SL;
         ;     693 	
         ;     694 	temp_SL1/=10000;
         ;     695 	
         ;     696 	temp_SL/=temp_SL1;
         ;     697 	
         ;     698 	if((signed)temp_SL<=temper_table[0])
         ;     699 		{
         ;     700 		temper[i]=-50;
         ;     701 		break;
         ;     702 		}
         ;     703 	else if((signed)temp_SL>=temper_table[20])
         ;     704 		{
         ;     705 		temper[i]=150;
         ;     706 		break;		
         ;     707 		}
         ;     708 	else 
         ;     709 		{
         ;     710 	    	for(ii=0;ii<20;ii++)
         ;     711 			{
         ;     712 			if(((signed)temp_SL>=temper_table[ii])&&((signed)temp_SL<=temper_table[ii+1]))break;
         ;     713 			}
         ;     714 		temp_SL1=(signed long)temper_table[ii+1]-(signed long)temper_table[ii];		
         ;     715 		temp_SL-=(signed long)temper_table[ii];
         ;     716 		temp_SL*=10;
         ;     717 		temp_SL/=temp_SL1;
         ;     718 		
         ;     719 		temp_SL+=(signed long)(ii*10);
         ;     720 		temp_SL-=50L;
         ;     721 	    //	temper[i]=-50;
         ;     722 	    //	temper[i]+=(ii*10);
         ;     723 		//temper[i]=(signed)temp_SL;
         ;     724 		  
         ;     725 		temper[i]=(signed)temp_SL;
         ;     726 		}
         ;     727 			
         ;     728 	}
         ;     729 */
         ;     730 
         ;     731 temp_SL=(signed long)adc_bank_[0];
0004ae 9728      	SBIW R28,8
0004af 940e 16e3 	CALL __SAVELOCR3
         ;	temp_SL -> Y+7
         ;	temp_SL1 -> Y+3
         ;	temp -> R16
         ;	i -> R17
         ;	ii -> R18
0004b1 91e0 032e 	LDS  R30,_adc_bank_
0004b3 91f0 032f 	LDS  R31,_adc_bank_+1
0004b5 940e 132a 	CALL SUBOPT_0x1D
         ;     732 	
         ;     733 if((temp_SL<200)||(temp_SL>800))nd[0]=1;
0004b7 f01c      	BRLT _0x58
0004b8 940e 133c 	CALL SUBOPT_0x1E
0004ba f414      	BRGE _0x57
          _0x58:
0004bb e0e1      	LDI  R30,LOW(1)
0004bc c001      	RJMP _0x25F
         ;     734 else nd[0]=0;
          _0x57:
0004bd e0e0      	LDI  R30,LOW(0)
          _0x25F:
0004be 93e0 0342 	STS  _nd,R30
         ;     735 	
         ;     736 temp_SL*=(signed long)(10000+K_t[0]);
0004c0 e0a1      	LDI  R26,LOW(_K_t)
0004c1 e0b0      	LDI  R27,HIGH(_K_t)
0004c2 940e 1347 	CALL SUBOPT_0x1F
         ;     737 	
         ;     738 temp_SL1=10240000L-temp_SL;
         ;     739 	
         ;     740 temp_SL1/=10000;
         ;     741 	
         ;     742 temp_SL/=temp_SL1;
         ;     743 	
         ;     744 if((signed)temp_SL<=temper_table[0])
0004c4 f03c      	BRLT _0x5B
         ;     745 	{
         ;     746 	temper[0]=-50;
0004c5 ecee      	LDI  R30,LOW(65486)
0004c6 efff      	LDI  R31,HIGH(65486)
0004c7 93e0 0326 	STS  _temper,R30
0004c9 93f0 0327 	STS  _temper+1,R31
         ;     747 	}
         ;     748 else if((signed)temp_SL>=temper_table[20])
0004cb c045      	RJMP _0x5C
          _0x5B:
0004cc   +  	__POINTW1FN _temper_table,40
0004ce 940e 1386 	CALL SUBOPT_0x20
0004d0 f01c      	BRLT _0x5D
         ;     749 	{
         ;     750 	temper[0]=150;
0004d1 e9e6      	LDI  R30,LOW(150)
0004d2 e0f0      	LDI  R31,HIGH(150)
0004d3 c039      	RJMP _0x260
         ;     751 	}
         ;     752 else 
          _0x5D:
         ;     753 	{
         ;     754 	for(ii=0;ii<20;ii++)
0004d4 e020      	LDI  R18,LOW(0)
          _0x60:
0004d5 3124      	CPI  R18,20
0004d6 f4b0      	BRSH _0x61
         ;     755 		{
         ;     756 		if(((signed)temp_SL>=temper_table[ii])&&((signed)temp_SL<=temper_table[ii+1]))break;
0004d7 940e 138d 	CALL SUBOPT_0x21
0004d9 940e 1386 	CALL SUBOPT_0x20
0004db f06c      	BRLT _0x63
0004dc eeee      	LDI  R30,LOW(_temper_table*2)
0004dd e0f0      	LDI  R31,HIGH(_temper_table*2)
0004de 93ff      	PUSH R31
0004df 93ef      	PUSH R30
0004e0 2fe2      	MOV  R30,R18
0004e1 5fef      	SUBI R30,-LOW(1)
0004e2 91af      	POP  R26
0004e3 91bf      	POP  R27
0004e4 940e 12ff 	CALL SUBOPT_0x17
0004e6 940e 1391 	CALL SUBOPT_0x22
0004e8 f40c      	BRGE _0x64
          _0x63:
0004e9 c001      	RJMP _0x62
          _0x64:
0004ea c002      	RJMP _0x61
         ;     757 		}
          _0x62:
0004eb 5f2f      	SUBI R18,-1
0004ec cfe8      	RJMP _0x60
          _0x61:
         ;     758 	temp_SL1=(signed long)temper_table[ii+1]-(signed long)temper_table[ii];		
0004ed eeee      	LDI  R30,LOW(_temper_table*2)
0004ee e0f0      	LDI  R31,HIGH(_temper_table*2)
0004ef 93ff      	PUSH R31
0004f0 93ef      	PUSH R30
0004f1 2fe2      	MOV  R30,R18
0004f2 5fef      	SUBI R30,-LOW(1)
0004f3 91af      	POP  R26
0004f4 91bf      	POP  R27
0004f5 940e 12ff 	CALL SUBOPT_0x17
0004f7 940e 169f 	CALL __GETW1PF
0004f9 940e 15ed 	CALL __CWD1
0004fb 937f      	PUSH R23
0004fc 936f      	PUSH R22
0004fd 93ff      	PUSH R31
0004fe 93ef      	PUSH R30
0004ff 940e 138d 	CALL SUBOPT_0x21
000501 940e 169f 	CALL __GETW1PF
000503 940e 15ed 	CALL __CWD1
000505 91af      	POP  R26
000506 91bf      	POP  R27
000507 918f      	POP  R24
000508 919f      	POP  R25
000509 940e 1398 	CALL SUBOPT_0x23
         ;     759 	temp_SL-=(signed long)temper_table[ii];
00050b 940e 13a1 	CALL SUBOPT_0x24
         ;     760 	temp_SL*=10;
         ;     761 	temp_SL/=temp_SL1;
         ;     762 		
         ;     763 	temp_SL+=(signed long)(ii*10);
         ;     764 	temp_SL-=50L;
         ;     765 		  
         ;     766 	temper[0]=(signed)temp_SL;
          _0x260:
00050d 93e0 0326 	STS  _temper,R30
00050f 93f0 0327 	STS  _temper+1,R31
         ;     767      }
          _0x5C:
         ;     768 
         ;     769 
         ;     770 
         ;     771 temp_SL=(signed long)adc_bank_[3];
000511   +  	__GETW1MN _adc_bank_,6
000515 940e 132a 	CALL SUBOPT_0x1D
         ;     772 	
         ;     773 if((temp_SL<200)||(temp_SL>800))nd[1]=1;
000517 f01c      	BRLT _0x66
000518 940e 133c 	CALL SUBOPT_0x1E
00051a f424      	BRGE _0x65
          _0x66:
00051b e0e1      	LDI  R30,LOW(1)
00051c   +  	__PUTB1MN _nd,1
         ;     774 else nd[1]=0;
00051e c003      	RJMP _0x68
          _0x65:
00051f e0e0      	LDI  R30,LOW(0)
000520   +  	__PUTB1MN _nd,1
          _0x68:
         ;     775 	
         ;     776 temp_SL*=(signed long)(10000+K_t[1]);
000522   +  	__POINTW2MN _K_t,2
000524 940e 1347 	CALL SUBOPT_0x1F
         ;     777 	
         ;     778 temp_SL1=10240000L-temp_SL;
         ;     779 	
         ;     780 temp_SL1/=10000;
         ;     781 	
         ;     782 temp_SL/=temp_SL1;
         ;     783 	
         ;     784 if((signed)temp_SL<=temper_table[0])
000526 f03c      	BRLT _0x69
         ;     785 	{
         ;     786 	temper[1]=-50;
000527 ecee      	LDI  R30,LOW(65486)
000528 efff      	LDI  R31,HIGH(65486)
000529   +  	__PUTW1MN _temper,2
         ;     787 	}
         ;     788 else if((signed)temp_SL>=temper_table[20])
00052d c049      	RJMP _0x6A
          _0x69:
00052e   +  	__POINTW1FN _temper_table,40
000530 940e 1386 	CALL SUBOPT_0x20
000532 f03c      	BRLT _0x6B
         ;     789 	{
         ;     790 	temper[1]=150;
000533 e9e6      	LDI  R30,LOW(150)
000534 e0f0      	LDI  R31,HIGH(150)
000535   +  	__PUTW1MN _temper,2
         ;     791 	}
         ;     792 else 
000539 c03d      	RJMP _0x6C
          _0x6B:
         ;     793 	{
         ;     794 	for(ii=0;ii<20;ii++)
00053a e020      	LDI  R18,LOW(0)
          _0x6E:
00053b 3124      	CPI  R18,20
00053c f4b0      	BRSH _0x6F
         ;     795 		{
         ;     796 		if(((signed)temp_SL>=temper_table[ii])&&((signed)temp_SL<=temper_table[ii+1]))break;
00053d 940e 138d 	CALL SUBOPT_0x21
00053f 940e 1386 	CALL SUBOPT_0x20
000541 f06c      	BRLT _0x71
000542 eeee      	LDI  R30,LOW(_temper_table*2)
000543 e0f0      	LDI  R31,HIGH(_temper_table*2)
000544 93ff      	PUSH R31
000545 93ef      	PUSH R30
000546 2fe2      	MOV  R30,R18
000547 5fef      	SUBI R30,-LOW(1)
000548 91af      	POP  R26
000549 91bf      	POP  R27
00054a 940e 12ff 	CALL SUBOPT_0x17
00054c 940e 1391 	CALL SUBOPT_0x22
00054e f40c      	BRGE _0x72
          _0x71:
00054f c001      	RJMP _0x70
          _0x72:
000550 c002      	RJMP _0x6F
         ;     797 		}
          _0x70:
000551 5f2f      	SUBI R18,-1
000552 cfe8      	RJMP _0x6E
          _0x6F:
         ;     798 	temp_SL1=(signed long)temper_table[ii+1]-(signed long)temper_table[ii];		
000553 eeee      	LDI  R30,LOW(_temper_table*2)
000554 e0f0      	LDI  R31,HIGH(_temper_table*2)
000555 93ff      	PUSH R31
000556 93ef      	PUSH R30
000557 2fe2      	MOV  R30,R18
000558 5fef      	SUBI R30,-LOW(1)
000559 91af      	POP  R26
00055a 91bf      	POP  R27
00055b 940e 12ff 	CALL SUBOPT_0x17
00055d 940e 169f 	CALL __GETW1PF
00055f 940e 15ed 	CALL __CWD1
000561 937f      	PUSH R23
000562 936f      	PUSH R22
000563 93ff      	PUSH R31
000564 93ef      	PUSH R30
000565 940e 138d 	CALL SUBOPT_0x21
000567 940e 169f 	CALL __GETW1PF
000569 940e 15ed 	CALL __CWD1
00056b 91af      	POP  R26
00056c 91bf      	POP  R27
00056d 918f      	POP  R24
00056e 919f      	POP  R25
00056f 940e 1398 	CALL SUBOPT_0x23
         ;     799 	temp_SL-=(signed long)temper_table[ii];
000571 940e 13a1 	CALL SUBOPT_0x24
         ;     800 	temp_SL*=10;
         ;     801 	temp_SL/=temp_SL1;
         ;     802 		
         ;     803 	temp_SL+=(signed long)(ii*10);
         ;     804 	temp_SL-=50L;
         ;     805 		  
         ;     806 	temper[1]=(signed)temp_SL;
000573   +  	__PUTW1MN _temper,2
         ;     807      }
          _0x6C:
          _0x6A:
         ;     808 
         ;     809 
         ;     810 
         ;     811 
         ;     812 temp_SL=(signed long)adc_bank_[2];
000577   +  	__GETW1MN _adc_bank_,4
00057b 940e 132a 	CALL SUBOPT_0x1D
         ;     813 	
         ;     814 if((temp_SL<200)||(temp_SL>800))nd[2]=1;
00057d f01c      	BRLT _0x74
00057e 940e 133c 	CALL SUBOPT_0x1E
000580 f424      	BRGE _0x73
          _0x74:
000581 e0e1      	LDI  R30,LOW(1)
000582   +  	__PUTB1MN _nd,2
         ;     815 else nd[2]=0;
000584 c003      	RJMP _0x76
          _0x73:
000585 e0e0      	LDI  R30,LOW(0)
000586   +  	__PUTB1MN _nd,2
          _0x76:
         ;     816 	
         ;     817 temp_SL*=(signed long)(10000+K_t[2]);
000588   +  	__POINTW2MN _K_t,4
00058a 940e 1347 	CALL SUBOPT_0x1F
         ;     818 	
         ;     819 temp_SL1=10240000L-temp_SL;
         ;     820 	
         ;     821 temp_SL1/=10000;
         ;     822 	
         ;     823 temp_SL/=temp_SL1;
         ;     824 	
         ;     825 if((signed)temp_SL<=temper_table[0])
00058c f03c      	BRLT _0x77
         ;     826 	{
         ;     827 	temper[2]=-50;
00058d ecee      	LDI  R30,LOW(65486)
00058e efff      	LDI  R31,HIGH(65486)
00058f   +  	__PUTW1MN _temper,4
         ;     828 	}
         ;     829 else if((signed)temp_SL>=temper_table[20])
000593 c049      	RJMP _0x78
          _0x77:
000594   +  	__POINTW1FN _temper_table,40
000596 940e 1386 	CALL SUBOPT_0x20
000598 f03c      	BRLT _0x79
         ;     830 	{
         ;     831 	temper[2]=150;
000599 e9e6      	LDI  R30,LOW(150)
00059a e0f0      	LDI  R31,HIGH(150)
00059b   +  	__PUTW1MN _temper,4
         ;     832 	}
         ;     833 else 
00059f c03d      	RJMP _0x7A
          _0x79:
         ;     834 	{
         ;     835 	for(ii=0;ii<20;ii++)
0005a0 e020      	LDI  R18,LOW(0)
          _0x7C:
0005a1 3124      	CPI  R18,20
0005a2 f4b0      	BRSH _0x7D
         ;     836 		{
         ;     837 		if(((signed)temp_SL>=temper_table[ii])&&((signed)temp_SL<=temper_table[ii+1]))break;
0005a3 940e 138d 	CALL SUBOPT_0x21
0005a5 940e 1386 	CALL SUBOPT_0x20
0005a7 f06c      	BRLT _0x7F
0005a8 eeee      	LDI  R30,LOW(_temper_table*2)
0005a9 e0f0      	LDI  R31,HIGH(_temper_table*2)
0005aa 93ff      	PUSH R31
0005ab 93ef      	PUSH R30
0005ac 2fe2      	MOV  R30,R18
0005ad 5fef      	SUBI R30,-LOW(1)
0005ae 91af      	POP  R26
0005af 91bf      	POP  R27
0005b0 940e 12ff 	CALL SUBOPT_0x17
0005b2 940e 1391 	CALL SUBOPT_0x22
0005b4 f40c      	BRGE _0x80
          _0x7F:
0005b5 c001      	RJMP _0x7E
          _0x80:
0005b6 c002      	RJMP _0x7D
         ;     838 		}
          _0x7E:
0005b7 5f2f      	SUBI R18,-1
0005b8 cfe8      	RJMP _0x7C
          _0x7D:
         ;     839 	temp_SL1=(signed long)temper_table[ii+1]-(signed long)temper_table[ii];		
0005b9 eeee      	LDI  R30,LOW(_temper_table*2)
0005ba e0f0      	LDI  R31,HIGH(_temper_table*2)
0005bb 93ff      	PUSH R31
0005bc 93ef      	PUSH R30
0005bd 2fe2      	MOV  R30,R18
0005be 5fef      	SUBI R30,-LOW(1)
0005bf 91af      	POP  R26
0005c0 91bf      	POP  R27
0005c1 940e 12ff 	CALL SUBOPT_0x17
0005c3 940e 169f 	CALL __GETW1PF
0005c5 940e 15ed 	CALL __CWD1
0005c7 937f      	PUSH R23
0005c8 936f      	PUSH R22
0005c9 93ff      	PUSH R31
0005ca 93ef      	PUSH R30
0005cb 940e 138d 	CALL SUBOPT_0x21
0005cd 940e 169f 	CALL __GETW1PF
0005cf 940e 15ed 	CALL __CWD1
0005d1 91af      	POP  R26
0005d2 91bf      	POP  R27
0005d3 918f      	POP  R24
0005d4 919f      	POP  R25
0005d5 940e 1398 	CALL SUBOPT_0x23
         ;     840 	temp_SL-=(signed long)temper_table[ii];
0005d7 940e 13a1 	CALL SUBOPT_0x24
         ;     841 	temp_SL*=10;
         ;     842 	temp_SL/=temp_SL1;
         ;     843 		
         ;     844 	temp_SL+=(signed long)(ii*10);
         ;     845 	temp_SL-=50L;
         ;     846 		  
         ;     847 	temper[2]=(signed)temp_SL;
0005d9   +  	__PUTW1MN _temper,4
         ;     848      }
          _0x7A:
          _0x78:
         ;     849      
         ;     850 
         ;     851 
         ;     852 
         ;     853 temp_SL=(signed long)adc_bank_[1];
0005dd   +  	__GETW1MN _adc_bank_,2
0005e1 940e 132a 	CALL SUBOPT_0x1D
         ;     854 	
         ;     855 if((temp_SL<200)||(temp_SL>800))nd[3]=1;
0005e3 f01c      	BRLT _0x82
0005e4 940e 133c 	CALL SUBOPT_0x1E
0005e6 f424      	BRGE _0x81
          _0x82:
0005e7 e0e1      	LDI  R30,LOW(1)
0005e8   +  	__PUTB1MN _nd,3
         ;     856 else nd[3]=0;
0005ea c003      	RJMP _0x84
          _0x81:
0005eb e0e0      	LDI  R30,LOW(0)
0005ec   +  	__PUTB1MN _nd,3
          _0x84:
         ;     857 	
         ;     858 temp_SL*=(signed long)(10000+K_t[3]);
0005ee   +  	__POINTW2MN _K_t,6
0005f0 940e 1347 	CALL SUBOPT_0x1F
         ;     859 	
         ;     860 temp_SL1=10240000L-temp_SL;
         ;     861 	
         ;     862 temp_SL1/=10000;
         ;     863 	
         ;     864 temp_SL/=temp_SL1;
         ;     865 	
         ;     866 if((signed)temp_SL<=temper_table[0])
0005f2 f03c      	BRLT _0x85
         ;     867 	{
         ;     868 	temper[3]=-50;
0005f3 ecee      	LDI  R30,LOW(65486)
0005f4 efff      	LDI  R31,HIGH(65486)
0005f5   +  	__PUTW1MN _temper,6
         ;     869 	}
         ;     870 else if((signed)temp_SL>=temper_table[20])
0005f9 c049      	RJMP _0x86
          _0x85:
0005fa   +  	__POINTW1FN _temper_table,40
0005fc 940e 1386 	CALL SUBOPT_0x20
0005fe f03c      	BRLT _0x87
         ;     871 	{
         ;     872 	temper[3]=150;
0005ff e9e6      	LDI  R30,LOW(150)
000600 e0f0      	LDI  R31,HIGH(150)
000601   +  	__PUTW1MN _temper,6
         ;     873 	}
         ;     874 else 
000605 c03d      	RJMP _0x88
          _0x87:
         ;     875 	{
         ;     876 	for(ii=0;ii<20;ii++)
000606 e020      	LDI  R18,LOW(0)
          _0x8A:
000607 3124      	CPI  R18,20
000608 f4b0      	BRSH _0x8B
         ;     877 		{
         ;     878 		if(((signed)temp_SL>=temper_table[ii])&&((signed)temp_SL<=temper_table[ii+1]))break;
000609 940e 138d 	CALL SUBOPT_0x21
00060b 940e 1386 	CALL SUBOPT_0x20
00060d f06c      	BRLT _0x8D
00060e eeee      	LDI  R30,LOW(_temper_table*2)
00060f e0f0      	LDI  R31,HIGH(_temper_table*2)
000610 93ff      	PUSH R31
000611 93ef      	PUSH R30
000612 2fe2      	MOV  R30,R18
000613 5fef      	SUBI R30,-LOW(1)
000614 91af      	POP  R26
000615 91bf      	POP  R27
000616 940e 12ff 	CALL SUBOPT_0x17
000618 940e 1391 	CALL SUBOPT_0x22
00061a f40c      	BRGE _0x8E
          _0x8D:
00061b c001      	RJMP _0x8C
          _0x8E:
00061c c002      	RJMP _0x8B
         ;     879 		}
          _0x8C:
00061d 5f2f      	SUBI R18,-1
00061e cfe8      	RJMP _0x8A
          _0x8B:
         ;     880 	temp_SL1=(signed long)temper_table[ii+1]-(signed long)temper_table[ii];		
00061f eeee      	LDI  R30,LOW(_temper_table*2)
000620 e0f0      	LDI  R31,HIGH(_temper_table*2)
000621 93ff      	PUSH R31
000622 93ef      	PUSH R30
000623 2fe2      	MOV  R30,R18
000624 5fef      	SUBI R30,-LOW(1)
000625 91af      	POP  R26
000626 91bf      	POP  R27
000627 940e 12ff 	CALL SUBOPT_0x17
000629 940e 169f 	CALL __GETW1PF
00062b 940e 15ed 	CALL __CWD1
00062d 937f      	PUSH R23
00062e 936f      	PUSH R22
00062f 93ff      	PUSH R31
000630 93ef      	PUSH R30
000631 940e 138d 	CALL SUBOPT_0x21
000633 940e 169f 	CALL __GETW1PF
000635 940e 15ed 	CALL __CWD1
000637 91af      	POP  R26
000638 91bf      	POP  R27
000639 918f      	POP  R24
00063a 919f      	POP  R25
00063b 940e 1398 	CALL SUBOPT_0x23
         ;     881 	temp_SL-=(signed long)temper_table[ii];
00063d 940e 13a1 	CALL SUBOPT_0x24
         ;     882 	temp_SL*=10;
         ;     883 	temp_SL/=temp_SL1;
         ;     884 		
         ;     885 	temp_SL+=(signed long)(ii*10);
         ;     886 	temp_SL-=50L;
         ;     887 		  
         ;     888 	temper[3]=(signed)temp_SL;
00063f   +  	__PUTW1MN _temper,6
         ;     889      }     
          _0x88:
          _0x86:
         ;     890 //Us[0]=Umat(adc_bank_[0],K_[kui1])/5;	
         ;     891 //Us[1]=Umat(adc_bank_[1],K_[kui2])/5;
         ;     892 //Ubat=Umat(adc_bank_[9]/4,K_[kub])/5;
         ;     893 //adc_out_temp=(signed long)adc_bank_[0];
         ;     894 //adc_out_temp*=(signed long)Ku;
         ;     895 //adc_out_temp/=200L; 
         ;     896 //Un=(signed)adc_out_temp;
         ;     897 //adc_out_temp=(signed long)adc_bank_[2];
         ;     898 //adc_out_temp*=(signed long)Ki;
         ;     899 //adc_out_temp/=100L;
         ;     900 //In=(signed)adc_out_temp;
         ;     901 //Un=(adc_bank_[0]*Ku)/200;
         ;     902 //In=(adc_bank_[2]*Ki)/200;
         ;     903 
         ;     904 
         ;     905 
         ;     906 }
000643 940e 16ea 	CALL __LOADLOCR3
000645 962b      	ADIW R28,11
000646 9508      	RET
         ;     907 
         ;     908  
         ;     909 //-----------------------------------------------
         ;     910 char find(char xy)
         ;     911 {
          _find:
         ;     912 char i=-1;
         ;     913 do i++;
000647 930a      	ST   -Y,R16
         ;	xy -> Y+1
         ;	i -> R16
000648 ef0f      	LDI  R16,255
          _0x90:
000649 5f0f      	SUBI R16,-1
         ;     914 while ((lcd_buffer[i]!=xy)&&(i<LCD_SIZE));
00064a 940e 13e9 	CALL SUBOPT_0x25
00064c 81e0      	LD   R30,Z
00064d 2fae      	MOV  R26,R30
00064e 81e9      	LDD  R30,Y+1
00064f 17ea      	CP   R30,R26
000650 f011      	BREQ _0x92
000651 3208      	CPI  R16,40
000652 f008      	BRLO _0x93
          _0x92:
000653 c001      	RJMP _0x91
          _0x93:
000654 cff4      	RJMP _0x90
          _0x91:
         ;     915 if(i>(33)) i=255;
000655 e2e1      	LDI  R30,LOW(33)
000656 17e0      	CP   R30,R16
000657 f408      	BRSH _0x94
000658 ef0f      	LDI  R16,LOW(255)
         ;     916 return i;
          _0x94:
000659 2fe0      	MOV  R30,R16
00065a c048      	RJMP _0x25A
         ;     917 }
         ;     918 
         ;     919 
         ;     920 //-----------------------------------------------
         ;     921 void bin2bcd_int(unsigned int in)
         ;     922 {
          _bin2bcd_int:
         ;     923 char i=5;
         ;     924 for(i=0;i<5;i++)
00065b 930a      	ST   -Y,R16
         ;	in -> Y+1
         ;	i -> R16
00065c e005      	LDI  R16,5
00065d e000      	LDI  R16,LOW(0)
          _0x96:
00065e 3005      	CPI  R16,5
00065f f4c8      	BRSH _0x97
         ;     925 	{
         ;     926 	dig[i]=in%10;
000660 2fe0      	MOV  R30,R16
000661 e0f0      	LDI  R31,0
000662 59e3      	SUBI R30,LOW(-_dig)
000663 4ffd      	SBCI R31,HIGH(-_dig)
000664 93ff      	PUSH R31
000665 93ef      	PUSH R30
000666 81a9      	LDD  R26,Y+1
000667 81ba      	LDD  R27,Y+1+1
000668 e0ea      	LDI  R30,LOW(10)
000669 e0f0      	LDI  R31,HIGH(10)
00066a 940e 1669 	CALL __MODW21U
00066c 91af      	POP  R26
00066d 91bf      	POP  R27
00066e 93ec      	ST   X,R30
         ;     927 	in/=10;
00066f 81a9      	LDD  R26,Y+1
000670 81ba      	LDD  R27,Y+1+1
000671 e0ea      	LDI  R30,LOW(10)
000672 e0f0      	LDI  R31,HIGH(10)
000673 940e 1626 	CALL __DIVW21U
000675 83e9      	STD  Y+1,R30
000676 83fa      	STD  Y+1+1,R31
         ;     928 	}   
000677 5f0f      	SUBI R16,-1
000678 cfe5      	RJMP _0x96
          _0x97:
         ;     929 }
000679 8108      	LDD  R16,Y+0
00067a 9623      	ADIW R28,3
00067b 9508      	RET
         ;     930 
         ;     931 //-----------------------------------------------
         ;     932 void bcd2lcd_zero(char sig)
         ;     933 {
          _bcd2lcd_zero:
         ;     934 char i;
         ;     935 zero_on=1;
00067c 930a      	ST   -Y,R16
         ;	sig -> Y+1
         ;	i -> R16
00067d 9468      	SET
00067e f830      	BLD  R3,0
         ;     936 for (i=5;i>0;i--)
00067f e005      	LDI  R16,LOW(5)
          _0x99:
000680 e0e0      	LDI  R30,LOW(0)
000681 17e0      	CP   R30,R16
000682 f500      	BRSH _0x9A
         ;     937 	{
         ;     938 	if(zero_on&&(!dig[i-1])&&(i>sig))
000683 fe30      	SBRS R3,0
000684 c008      	RJMP _0x9C
000685 940e 13ee 	CALL SUBOPT_0x26
000687 81e0      	LD   R30,Z
000688 30e0      	CPI  R30,0
000689 f419      	BRNE _0x9C
00068a 81e9      	LDD  R30,Y+1
00068b 17e0      	CP   R30,R16
00068c f008      	BRLO _0x9D
          _0x9C:
00068d c006      	RJMP _0x9B
          _0x9D:
         ;     939 		{
         ;     940 		dig[i-1]=0x20;
00068e 940e 13ee 	CALL SUBOPT_0x26
000690 01df      	MOVW R26,R30
000691 e2e0      	LDI  R30,LOW(32)
000692 93ec      	ST   X,R30
         ;     941 		}
         ;     942 	else
000693 c00d      	RJMP _0x9E
          _0x9B:
         ;     943 		{
         ;     944 		dig[i-1]=dig[i-1]+0x30;
000694 940e 13ee 	CALL SUBOPT_0x26
000696 93ff      	PUSH R31
000697 93ef      	PUSH R30
000698 940e 13ee 	CALL SUBOPT_0x26
00069a 81e0      	LD   R30,Z
00069b 5de0      	SUBI R30,-LOW(48)
00069c 91af      	POP  R26
00069d 91bf      	POP  R27
00069e 93ec      	ST   X,R30
         ;     945 		zero_on=0;
00069f 94e8      	CLT
0006a0 f830      	BLD  R3,0
         ;     946 		}	
          _0x9E:
         ;     947 	}
0006a1 5001      	SUBI R16,1
0006a2 cfdd      	RJMP _0x99
          _0x9A:
         ;     948 }    
          _0x25A:
0006a3 8108      	LDD  R16,Y+0
0006a4 9622      	ADIW R28,2
0006a5 9508      	RET
         ;     949 
         ;     950 //-----------------------------------------------
         ;     951 void int2lcd(unsigned int in,char xy,char des)
         ;     952 {
          _int2lcd:
         ;     953 char i;
         ;     954 char n;
         ;     955 
         ;     956 bin2bcd_int(in);
0006a6 940e 13f4 	CALL SUBOPT_0x27
         ;	in -> Y+4
         ;	xy -> Y+3
         ;	des -> Y+2
         ;	i -> R16
         ;	n -> R17
         ;     957 bcd2lcd_zero(des+1);
         ;     958 i=find(xy);
0006a8 940e 1403 	CALL SUBOPT_0x28
         ;     959 for (n=0;n<5;n++)
0006aa e010      	LDI  R17,LOW(0)
          _0xA0:
0006ab 3015      	CPI  R17,5
0006ac f010      	BRLO PC+3
0006ad 940c 06ef 	JMP _0xA1
         ;     960 	{
         ;     961    	if(!des&&(dig[n]!=' '))
0006af 81ea      	LDD  R30,Y+2
0006b0 30e0      	CPI  R30,0
0006b1 f421      	BRNE _0xA3
0006b2 940e 1408 	CALL SUBOPT_0x29
0006b4 32e0      	CPI  R30,LOW(0x20)
0006b5 f409      	BRNE _0xA4
          _0xA3:
0006b6 c00a      	RJMP _0xA2
          _0xA4:
         ;     962    		{
         ;     963    		lcd_buffer[i]=dig[n];	 
0006b7 940e 13e9 	CALL SUBOPT_0x25
0006b9 93ff      	PUSH R31
0006ba 93ef      	PUSH R30
0006bb 940e 1408 	CALL SUBOPT_0x29
0006bd 91af      	POP  R26
0006be 91bf      	POP  R27
0006bf 93ec      	ST   X,R30
         ;     964    		}
         ;     965    	else 
0006c0 c02b      	RJMP _0xA5
          _0xA2:
         ;     966    		{
         ;     967    		if(n<des)lcd_buffer[i]=dig[n];
0006c1 81ea      	LDD  R30,Y+2
0006c2 171e      	CP   R17,R30
0006c3 f450      	BRSH _0xA6
0006c4 940e 13e9 	CALL SUBOPT_0x25
0006c6 93ff      	PUSH R31
0006c7 93ef      	PUSH R30
0006c8 940e 1408 	CALL SUBOPT_0x29
0006ca 91af      	POP  R26
0006cb 91bf      	POP  R27
0006cc 93ec      	ST   X,R30
         ;     968    		else if (n==des)
0006cd c01e      	RJMP _0xA7
          _0xA6:
0006ce 81ea      	LDD  R30,Y+2
0006cf 17e1      	CP   R30,R17
0006d0 f451      	BRNE _0xA8
         ;     969    			{
         ;     970    			lcd_buffer[i]='.';
0006d1 940e 140e 	CALL SUBOPT_0x2A
         ;     971    			lcd_buffer[i-1]=dig[n];
0006d3 93ff      	PUSH R31
0006d4 93ef      	PUSH R30
0006d5 940e 1408 	CALL SUBOPT_0x29
0006d7 91af      	POP  R26
0006d8 91bf      	POP  R27
0006d9 93ec      	ST   X,R30
         ;     972    			} 
         ;     973    		else if ((n>des)&&(dig[n]!=' ')) lcd_buffer[i-1]=dig[n];   		
0006da c011      	RJMP _0xA9
          _0xA8:
0006db 81ea      	LDD  R30,Y+2
0006dc 17e1      	CP   R30,R17
0006dd f420      	BRSH _0xAB
0006de 940e 1408 	CALL SUBOPT_0x29
0006e0 32e0      	CPI  R30,LOW(0x20)
0006e1 f409      	BRNE _0xAC
          _0xAB:
0006e2 c009      	RJMP _0xAA
          _0xAC:
0006e3 940e 141a 	CALL SUBOPT_0x2B
0006e5 93ff      	PUSH R31
0006e6 93ef      	PUSH R30
0006e7 940e 1408 	CALL SUBOPT_0x29
0006e9 91af      	POP  R26
0006ea 91bf      	POP  R27
0006eb 93ec      	ST   X,R30
         ;     974    		}  
          _0xAA:
          _0xA9:
          _0xA7:
          _0xA5:
         ;     975 		
         ;     976 	i--;	
0006ec 5001      	SUBI R16,1
         ;     977 	}
0006ed 5f1f      	SUBI R17,-1
0006ee cfbc      	RJMP _0xA0
          _0xA1:
         ;     978 }
0006ef c048      	RJMP _0x259
         ;     979 
         ;     980 //-----------------------------------------------
         ;     981 void int2lcdxy(unsigned int in,char xy,char des)
         ;     982 {
          _int2lcdxy:
         ;     983 char i;
         ;     984 char n;
         ;     985 bin2bcd_int(in);
0006f0 940e 13f4 	CALL SUBOPT_0x27
         ;	in -> Y+4
         ;	xy -> Y+3
         ;	des -> Y+2
         ;	i -> R16
         ;	n -> R17
         ;     986 bcd2lcd_zero(des+1);
         ;     987 i=((xy&0b00000011)*16)+((xy&0b11110000)>>4);
0006f2 70e3      	ANDI R30,LOW(0x3)
0006f3 2fae      	MOV  R26,R30
0006f4 e1e0      	LDI  R30,LOW(16)
0006f5 9fea      	MUL  R30,R26
0006f6 2de0      	MOV  R30,R0
0006f7 93ef      	PUSH R30
0006f8 81eb      	LDD  R30,Y+3
0006f9 7fe0      	ANDI R30,LOW(0xF0)
0006fa 95e2      	SWAP R30
0006fb 70ef      	ANDI R30,0xF
0006fc 91af      	POP  R26
0006fd 0fea      	ADD  R30,R26
0006fe 2f0e      	MOV  R16,R30
         ;     988 if ((xy&0b00000011)>=2) i++;
0006ff 81eb      	LDD  R30,Y+3
000700 70e3      	ANDI R30,LOW(0x3)
000701 30e2      	CPI  R30,LOW(0x2)
000702 f008      	BRLO _0xAD
000703 5f0f      	SUBI R16,-1
         ;     989 if ((xy&0b00000011)==3) i++;
          _0xAD:
000704 81eb      	LDD  R30,Y+3
000705 70e3      	ANDI R30,LOW(0x3)
000706 30e3      	CPI  R30,LOW(0x3)
000707 f409      	BRNE _0xAE
000708 5f0f      	SUBI R16,-1
         ;     990 for (n=0;n<5;n++)
          _0xAE:
000709 e010      	LDI  R17,LOW(0)
          _0xB0:
00070a 3015      	CPI  R17,5
00070b f560      	BRSH _0xB1
         ;     991 	{ 
         ;     992 	if(n<des)
00070c 81ea      	LDD  R30,Y+2
00070d 171e      	CP   R17,R30
00070e f448      	BRSH _0xB2
         ;     993 		{
         ;     994 		lcd_buffer[i]=dig[n];
00070f 940e 13e9 	CALL SUBOPT_0x25
000711 93ff      	PUSH R31
000712 93ef      	PUSH R30
000713 940e 1408 	CALL SUBOPT_0x29
000715 91af      	POP  R26
000716 91bf      	POP  R27
000717 93ec      	ST   X,R30
         ;     995 		}   
         ;     996 	if((n>=des)&&(dig[n]!=0x20))
          _0xB2:
000718 81ea      	LDD  R30,Y+2
000719 171e      	CP   R17,R30
00071a f020      	BRLO _0xB4
00071b 940e 1408 	CALL SUBOPT_0x29
00071d 32e0      	CPI  R30,LOW(0x20)
00071e f409      	BRNE _0xB5
          _0xB4:
00071f c015      	RJMP _0xB3
          _0xB5:
         ;     997 		{
         ;     998 		if(!des)lcd_buffer[i]=dig[n];	
000720 81ea      	LDD  R30,Y+2
000721 30e0      	CPI  R30,0
000722 f449      	BRNE _0xB6
000723 940e 13e9 	CALL SUBOPT_0x25
000725 93ff      	PUSH R31
000726 93ef      	PUSH R30
000727 940e 1408 	CALL SUBOPT_0x29
000729 91af      	POP  R26
00072a 91bf      	POP  R27
00072b c008      	RJMP _0x261
         ;     999 		else lcd_buffer[i-1]=dig[n];
          _0xB6:
00072c 940e 141a 	CALL SUBOPT_0x2B
00072e 93ff      	PUSH R31
00072f 93ef      	PUSH R30
000730 940e 1408 	CALL SUBOPT_0x29
000732 91af      	POP  R26
000733 91bf      	POP  R27
          _0x261:
000734 93ec      	ST   X,R30
         ;    1000    		}   
         ;    1001 	i--;	
          _0xB3:
000735 5001      	SUBI R16,1
         ;    1002 	}
000736 5f1f      	SUBI R17,-1
000737 cfd2      	RJMP _0xB0
          _0xB1:
         ;    1003 }
          _0x259:
000738 8119      	LDD  R17,Y+1
000739 8108      	LDD  R16,Y+0
00073a 9626      	ADIW R28,6
00073b 9508      	RET
         ;    1004 
         ;    1005 //-----------------------------------------------
         ;    1006 void int2lcd_mm(signed int in,char xy,char des)
         ;    1007 {
          _int2lcd_mm:
         ;    1008 char i;
         ;    1009 char n;
         ;    1010 char minus='+';
         ;    1011 if(in<0)
00073c 940e 16e3 	CALL __SAVELOCR3
         ;	in -> Y+5
         ;	xy -> Y+4
         ;	des -> Y+3
         ;	i -> R16
         ;	n -> R17
         ;	minus -> R18
00073e e22b      	LDI  R18,43
00073f 81ad      	LDD  R26,Y+5
000740 81be      	LDD  R27,Y+5+1
000741 9710      	SBIW R26,0
000742 f44c      	BRGE _0xB8
         ;    1012 	{
         ;    1013 	in=abs(in);
000743 81ed      	LDD  R30,Y+5
000744 81fe      	LDD  R31,Y+5+1
000745 93fa      	ST   -Y,R31
000746 93ea      	ST   -Y,R30
000747 940e 15b2 	CALL _abs
000749 83ed      	STD  Y+5,R30
00074a 83fe      	STD  Y+5+1,R31
         ;    1014 	minus='-';
00074b e22d      	LDI  R18,LOW(45)
         ;    1015 	}
         ;    1016 bin2bcd_int(in);
          _0xB8:
00074c 81ed      	LDD  R30,Y+5
00074d 81fe      	LDD  R31,Y+5+1
00074e 93fa      	ST   -Y,R31
00074f 93ea      	ST   -Y,R30
000750 940e 065b 	CALL _bin2bcd_int
         ;    1017 bcd2lcd_zero(des+1);
000752 81eb      	LDD  R30,Y+3
000753 5fef      	SUBI R30,-LOW(1)
000754 93ea      	ST   -Y,R30
000755 940e 067c 	CALL _bcd2lcd_zero
         ;    1018 i=find(xy);
000757 81ec      	LDD  R30,Y+4
000758 940e 1403 	CALL SUBOPT_0x28
         ;    1019 for (n=0;n<5;n++)
00075a e010      	LDI  R17,LOW(0)
          _0xBA:
00075b 3015      	CPI  R17,5
00075c f010      	BRLO PC+3
00075d 940c 07bc 	JMP _0xBB
         ;    1020 	{
         ;    1021    	if(!des&&(dig[n]!=' '))
00075f 81eb      	LDD  R30,Y+3
000760 30e0      	CPI  R30,0
000761 f421      	BRNE _0xBD
000762 940e 1408 	CALL SUBOPT_0x29
000764 32e0      	CPI  R30,LOW(0x20)
000765 f409      	BRNE _0xBE
          _0xBD:
000766 c015      	RJMP _0xBC
          _0xBE:
         ;    1022    		{
         ;    1023    		if((dig[n+1]==' ')&&(minus=='-'))lcd_buffer[i-1]='-';
000767 940e 1420 	CALL SUBOPT_0x2C
000769 f411      	BRNE _0xC0
00076a 322d      	CPI  R18,45
00076b f009      	BREQ _0xC1
          _0xC0:
00076c c005      	RJMP _0xBF
          _0xC1:
00076d 940e 141a 	CALL SUBOPT_0x2B
00076f 01df      	MOVW R26,R30
000770 e2ed      	LDI  R30,LOW(45)
000771 93ec      	ST   X,R30
         ;    1024    		lcd_buffer[i]=dig[n];	 
          _0xBF:
000772 940e 13e9 	CALL SUBOPT_0x25
000774 93ff      	PUSH R31
000775 93ef      	PUSH R30
000776 940e 1408 	CALL SUBOPT_0x29
000778 91af      	POP  R26
000779 91bf      	POP  R27
00077a 93ec      	ST   X,R30
         ;    1025    		}
         ;    1026    	else 
00077b c03d      	RJMP _0xC2
          _0xBC:
         ;    1027    		{
         ;    1028    		if(n<des)lcd_buffer[i]=dig[n];
00077c 81eb      	LDD  R30,Y+3
00077d 171e      	CP   R17,R30
00077e f450      	BRSH _0xC3
00077f 940e 13e9 	CALL SUBOPT_0x25
000781 93ff      	PUSH R31
000782 93ef      	PUSH R30
000783 940e 1408 	CALL SUBOPT_0x29
000785 91af      	POP  R26
000786 91bf      	POP  R27
000787 93ec      	ST   X,R30
         ;    1029    		else if (n==des)
000788 c030      	RJMP _0xC4
          _0xC3:
000789 81eb      	LDD  R30,Y+3
00078a 17e1      	CP   R30,R17
00078b f451      	BRNE _0xC5
         ;    1030    			{
         ;    1031    			lcd_buffer[i]='.';
00078c 940e 140e 	CALL SUBOPT_0x2A
         ;    1032    			lcd_buffer[i-1]=dig[n];
00078e 93ff      	PUSH R31
00078f 93ef      	PUSH R30
000790 940e 1408 	CALL SUBOPT_0x29
000792 91af      	POP  R26
000793 91bf      	POP  R27
000794 93ec      	ST   X,R30
         ;    1033    			} 
         ;    1034    		else if ((n>des)&&(dig[n]!=' ')) lcd_buffer[i-1]=dig[n]; 
000795 c023      	RJMP _0xC6
          _0xC5:
000796 81eb      	LDD  R30,Y+3
000797 17e1      	CP   R30,R17
000798 f420      	BRSH _0xC8
000799 940e 1408 	CALL SUBOPT_0x29
00079b 32e0      	CPI  R30,LOW(0x20)
00079c f409      	BRNE _0xC9
          _0xC8:
00079d c00a      	RJMP _0xC7
          _0xC9:
00079e 940e 141a 	CALL SUBOPT_0x2B
0007a0 93ff      	PUSH R31
0007a1 93ef      	PUSH R30
0007a2 940e 1408 	CALL SUBOPT_0x29
0007a4 91af      	POP  R26
0007a5 91bf      	POP  R27
0007a6 93ec      	ST   X,R30
         ;    1035    		else if ((minus=='-')&&(n>des)&&(dig[n]!=' ')&&(dig[n+1]==' ')) lcd_buffer[i]='-';  		
0007a7 c011      	RJMP _0xCA
          _0xC7:
0007a8 322d      	CPI  R18,45
0007a9 f451      	BRNE _0xCC
0007aa 81eb      	LDD  R30,Y+3
0007ab 17e1      	CP   R30,R17
0007ac f438      	BRSH _0xCC
0007ad 940e 1408 	CALL SUBOPT_0x29
0007af 32e0      	CPI  R30,LOW(0x20)
0007b0 f019      	BREQ _0xCC
0007b1 940e 1420 	CALL SUBOPT_0x2C
0007b3 f009      	BREQ _0xCD
          _0xCC:
0007b4 c004      	RJMP _0xCB
          _0xCD:
0007b5 940e 1428 	CALL SUBOPT_0x2D
0007b7 e2ed      	LDI  R30,LOW(45)
0007b8 93ec      	ST   X,R30
         ;    1036    		}  
          _0xCB:
          _0xCA:
          _0xC6:
          _0xC4:
          _0xC2:
         ;    1037 		
         ;    1038 	i--;	
0007b9 5001      	SUBI R16,1
         ;    1039 	}
0007ba 5f1f      	SUBI R17,-1
0007bb cf9f      	RJMP _0xBA
          _0xBB:
         ;    1040 }
0007bc 940e 16ea 	CALL __LOADLOCR3
0007be 9627      	ADIW R28,7
0007bf 9508      	RET
         ;    1041 
         ;    1042 //-----------------------------------------------
         ;    1043 void sint2lcdxy(signed int in,char xy,char des)
         ;    1044 {
         ;    1045 char i;
         ;    1046 char n;
         ;    1047 char sign;
         ;    1048 sign=0;
         ;	in -> Y+5
         ;	xy -> Y+4
         ;	des -> Y+3
         ;	i -> R16
         ;	n -> R17
         ;	sign -> R18
         ;    1049 if(in<0)
         ;    1050 	{
         ;    1051 	in=-in;
         ;    1052 	sign=1;
         ;    1053 	}
         ;    1054 bin2bcd_int(in);
         ;    1055 bcd2lcd_zero(des+1);
         ;    1056 i=((xy&0b00000011)*16)+((xy&0b11110000)>>4);
         ;    1057 if ((xy&0b00000011)>=2) i++;
         ;    1058 if ((xy&0b00000011)==3) i++;
         ;    1059 for (n=0;n<5;n++)
         ;    1060 	{ 
         ;    1061 	if(n<des)
         ;    1062 		{
         ;    1063 		lcd_buffer[i]=dig[n];
         ;    1064 		}   
         ;    1065 	if((n>=des)&&(dig[n]!=0x20))
         ;    1066 		{
         ;    1067 		if(!des)lcd_buffer[i]=dig[n];	
         ;    1068 		else lcd_buffer[i-1]=dig[n];
         ;    1069    		}   
         ;    1070 	i--;	
         ;    1071 	}
         ;    1072 }
         ;    1073 
         ;    1074 //-----------------------------------------------
         ;    1075 void sub_bgnd(char flash *adr,char xy,signed char offset)
         ;    1076 {
          _sub_bgnd:
         ;    1077 char temp;
         ;    1078 temp=find(xy);
0007c0 930a      	ST   -Y,R16
         ;	*adr -> Y+3
         ;	xy -> Y+2
         ;	offset -> Y+1
         ;	temp -> R16
0007c1 81ea      	LDD  R30,Y+2
0007c2 940e 1403 	CALL SUBOPT_0x28
         ;    1079 
         ;    1080 //ptr_ram=&lcd_buffer[find(xy)];
         ;    1081 if(temp!=255)
0007c4 3f0f      	CPI  R16,255
0007c5 f089      	BREQ _0xDA
         ;    1082 while (*adr)
          _0xDB:
0007c6 940e 142d 	CALL SUBOPT_0x2E
0007c8 f071      	BREQ _0xDD
         ;    1083 	{
         ;    1084 	lcd_buffer[temp+offset]=*adr++;
0007c9 81e9      	LDD  R30,Y+1
0007ca 0fe0      	ADD  R30,R16
0007cb e0f0      	LDI  R31,0
0007cc 55ee      	SUBI R30,LOW(-_lcd_buffer)
0007cd 4ffd      	SBCI R31,HIGH(-_lcd_buffer)
0007ce 93ff      	PUSH R31
0007cf 93ef      	PUSH R30
0007d0 940e 1432 	CALL SUBOPT_0x2F
0007d2 91af      	POP  R26
0007d3 91bf      	POP  R27
0007d4 93ec      	ST   X,R30
         ;    1085 	temp++;
0007d5 5f0f      	SUBI R16,-1
         ;    1086     	}
0007d6 cfef      	RJMP _0xDB
          _0xDD:
         ;    1087 }
          _0xDA:
0007d7 c031      	RJMP _0x258
         ;    1088 
         ;    1089 //-----------------------------------------------
         ;    1090 void bgnd_par(char flash *ptr0,char flash *ptr1)
         ;    1091 {
          _bgnd_par:
         ;    1092 char i;
         ;    1093 for (i=0;i<LCD_SIZE;i++)
0007d8 930a      	ST   -Y,R16
         ;	*ptr0 -> Y+3
         ;	*ptr1 -> Y+1
         ;	i -> R16
0007d9 e000      	LDI  R16,LOW(0)
          _0xDF:
0007da 3208      	CPI  R16,40
0007db f430      	BRSH _0xE0
         ;    1094 	{
         ;    1095 	lcd_buffer[i]=0x20;
0007dc 940e 1428 	CALL SUBOPT_0x2D
0007de e2e0      	LDI  R30,LOW(32)
0007df 93ec      	ST   X,R30
         ;    1096 	}
0007e0 5f0f      	SUBI R16,-1
0007e1 cff8      	RJMP _0xDF
          _0xE0:
         ;    1097 ptr_ram=lcd_buffer;
0007e2 eae2      	LDI  R30,LOW(_lcd_buffer)
0007e3 e0f2      	LDI  R31,HIGH(_lcd_buffer)
0007e4 93e0 0260 	STS  _ptr_ram,R30
0007e6 93f0 0261 	STS  _ptr_ram+1,R31
         ;    1098 while (*ptr0)
          _0xE1:
0007e8 940e 142d 	CALL SUBOPT_0x2E
0007ea f051      	BREQ _0xE3
         ;    1099 	{
         ;    1100 	*ptr_ram++=*ptr0++;
0007eb 940e 143a 	CALL SUBOPT_0x30
0007ed 93ff      	PUSH R31
0007ee 93ef      	PUSH R30
0007ef 940e 1432 	CALL SUBOPT_0x2F
0007f1 91af      	POP  R26
0007f2 91bf      	POP  R27
0007f3 93ec      	ST   X,R30
         ;    1101    	}
0007f4 cff3      	RJMP _0xE1
          _0xE3:
         ;    1102 while (*ptr1)
          _0xE4:
0007f5 81e9      	LDD  R30,Y+1
0007f6 81fa      	LDD  R31,Y+1+1
0007f7 91e4      	LPM  R30,Z
0007f8 30e0      	CPI  R30,0
0007f9 f079      	BREQ _0xE6
         ;    1103 	{
         ;    1104 	*ptr_ram++=*ptr1++;
0007fa 940e 143a 	CALL SUBOPT_0x30
0007fc 93ff      	PUSH R31
0007fd 93ef      	PUSH R30
0007fe 81e9      	LDD  R30,Y+1
0007ff 81fa      	LDD  R31,Y+1+1
000800 9631      	ADIW R30,1
000801 83e9      	STD  Y+1,R30
000802 83fa      	STD  Y+1+1,R31
000803 9731      	SBIW R30,1
000804 91e4      	LPM  R30,Z
000805 91af      	POP  R26
000806 91bf      	POP  R27
000807 93ec      	ST   X,R30
         ;    1105    	}
000808 cfec      	RJMP _0xE4
          _0xE6:
         ;    1106 } 
          _0x258:
000809 8108      	LDD  R16,Y+0
00080a 9625      	ADIW R28,5
00080b 9508      	RET
         ;    1107 
         ;    1108 
         ;    1109 //-----------------------------------------------
         ;    1110 void ind_hndl(void)
         ;    1111 {
          _ind_hndl:
         ;    1112 /* 
         ;    1113 flash char sm0_0[]	={" Раб. от ист N] "};
         ;    1114 flash char sm0_1[]	={" Раб. от N1 и N2"}; 
         ;    1115 flash char sm0_2[]	={" Раб. от батареи"};
         ;    1116 flash char sm0_3[]	={" Ав.N[   Раб.N] "}; */
         ;    1117 
         ;    1118 signed int temp;
         ;    1119 flash char* ptrs[11];
         ;    1120 char temp_;
         ;    1121 if(cnt_ind_nd)cnt_ind_nd--;
00080c 9766      	SBIW R28,22
00080d 940e 16e3 	CALL __SAVELOCR3
         ;	temp -> R16,R17
         ;	*ptrs -> Y+3
         ;	temp_ -> R18
00080f 91e0 03a3 	LDS  R30,_cnt_ind_nd
000811 30e0      	CPI  R30,0
000812 f019      	BREQ _0xE7
000813 50e1      	SUBI R30,LOW(1)
000814 93e0 03a3 	STS  _cnt_ind_nd,R30
         ;    1122 
         ;    1123 if (ind==iMn)
          _0xE7:
000816 2c06      	MOV  R0,R6
000817 2807      	OR   R0,R7
000818 f011      	BREQ PC+3
000819 940c 09f7 	JMP _0xE8
         ;    1124 	{
         ;    1125 	if(ind_mode==im_1)
00081b e3a6      	LDI  R26,LOW(_ind_mode)
00081c e0b0      	LDI  R27,HIGH(_ind_mode)
00081d 940e 16b0 	CALL __EEPROMRDW
00081f 9730      	SBIW R30,0
000820 f011      	BREQ PC+3
000821 940c 09e4 	JMP _0xE9
         ;    1126 		{
         ;    1127 		if(++ind_cnt>=40)ind_cnt=0;
000823 91a0 0325 	LDS  R26,_ind_cnt
000825 5faf      	SUBI R26,-LOW(1)
000826 93a0 0325 	STS  _ind_cnt,R26
000828 32a8      	CPI  R26,LOW(0x28)
000829 f018      	BRLO _0xEA
00082a e0e0      	LDI  R30,LOW(0)
00082b 93e0 0325 	STS  _ind_cnt,R30
         ;    1128 		
         ;    1129 		bgnd_par(	"!       @       ",
          _0xEA:
         ;    1130  				"#       $       "); 
00082d   +  	__POINTW1FN _0,1
00082f 93fa      	ST   -Y,R31
000830 93ea      	ST   -Y,R30
000831   +  	__POINTW1FN _0,18
000833 93fa      	ST   -Y,R31
000834 93ea      	ST   -Y,R30
000835 940e 07d8 	CALL _bgnd_par
         ;    1131                     
         ;    1132      	if((ind_cnt>=0)&&(ind_cnt<=20))
000837 91a0 0325 	LDS  R26,_ind_cnt
000839 30a0      	CPI  R26,0
00083a f018      	BRLO _0xEC
00083b e1e4      	LDI  R30,LOW(20)
00083c 17ea      	CP   R30,R26
00083d f408      	BRSH _0xED
          _0xEC:
00083e c01a      	RJMP _0xEB
          _0xED:
         ;    1133      		{
         ;    1134      		sub_bgnd("1   !gC",'!',0);
00083f   +  	__POINTW1FN _0,35
000841 940e 1445 	CALL SUBOPT_0x31
000843 940e 07c0 	CALL _sub_bgnd
         ;    1135      		if(nd[0])sub_bgnd("Н.Д.",'!',-1);
000845 91e0 0342 	LDS  R30,_nd
000847 30e0      	CPI  R30,0
000848 f039      	BREQ _0xEE
000849   +  	__POINTW1FN _0,43
00084b 940e 1449 	CALL SUBOPT_0x32
00084d 940e 144e 	CALL SUBOPT_0x33
         ;    1136      		else int2lcd_mm(temper[0],'!',0);
00084f c008      	RJMP _0xEF
          _0xEE:
000850 91e0 0326 	LDS  R30,_temper
000852 91f0 0327 	LDS  R31,_temper+1
000854 940e 1445 	CALL SUBOPT_0x31
000856 940e 073c 	CALL _int2lcd_mm
          _0xEF:
         ;    1137      		}
         ;    1138      	else 
000858 c040      	RJMP _0xF0
          _0xEB:
         ;    1139      		{
         ;    1140      		sub_bgnd("1  #@0!",'!',0);
000859   +  	__POINTW1FN _0,48
00085b 940e 1445 	CALL SUBOPT_0x31
00085d 940e 07c0 	CALL _sub_bgnd
         ;    1141      		if(wrk_state[0])
00085f e1a9      	LDI  R26,LOW(_wrk_state)
000860 e0b0      	LDI  R27,HIGH(_wrk_state)
000861 940e 16b0 	CALL __EEPROMRDW
000863 9730      	SBIW R30,0
000864 f171      	BREQ _0xF1
         ;    1142      			{
         ;    1143      			//int2lcd(wrk_time_cnt,'1',0); 
         ;    1144      			int2lcd(wrk_time_cnt[0]%60,'!',0);
000865 91a0 02fd 	LDS  R26,_wrk_time_cnt
000867 91b0 02fe 	LDS  R27,_wrk_time_cnt+1
000869 940e 1452 	CALL SUBOPT_0x34
00086b 940e 06a6 	CALL _int2lcd
         ;    1145 				int2lcd(wrk_time_cnt[0]/60,'#',0); 
00086d 91a0 02fd 	LDS  R26,_wrk_time_cnt
00086f 91b0 02fe 	LDS  R27,_wrk_time_cnt+1
000871 940e 1457 	CALL SUBOPT_0x35
000873 940e 06a6 	CALL _int2lcd
         ;    1146 				
         ;    1147 				if((ee_time_mode[0]==0)||(wrk_time_cnt_flag[0]==1))
000875 e1a1      	LDI  R26,LOW(_ee_time_mode)
000876 e0b0      	LDI  R27,HIGH(_ee_time_mode)
000877 940e 16b0 	CALL __EEPROMRDW
000879 9730      	SBIW R30,0
00087a f041      	BREQ _0xF3
00087b 91a0 030d 	LDS  R26,_wrk_time_cnt_flag
00087d 91b0 030e 	LDS  R27,_wrk_time_cnt_flag+1
00087f 30a1      	CPI  R26,LOW(0x1)
000880 e0e0      	LDI  R30,HIGH(0x1)
000881 07be      	CPC  R27,R30
000882 f459      	BRNE _0xF2
          _0xF3:
         ;    1148 					{
         ;    1149 					if(bFL2)lcd_buffer[find('@')]=':';
000883 fe36      	SBRS R3,6
000884 c004      	RJMP _0xF5
000885 940e 145f 	CALL SUBOPT_0x36
000887 e3ea      	LDI  R30,LOW(58)
000888 c003      	RJMP _0x262
         ;    1150 					else lcd_buffer[find('@')]=' ';
          _0xF5:
000889 940e 145f 	CALL SUBOPT_0x36
00088b e2e0      	LDI  R30,LOW(32)
          _0x262:
00088c 93ec      	ST   X,R30
         ;    1151 					} 
         ;    1152 				else lcd_buffer[find('@')]=':';
00088d c004      	RJMP _0xF7
          _0xF2:
00088e 940e 145f 	CALL SUBOPT_0x36
000890 e3ea      	LDI  R30,LOW(58)
000891 93ec      	ST   X,R30
          _0xF7:
         ;    1153      			}
         ;    1154 			else sub_bgnd("ВЫКЛ.",'!',-4);     			
000892 c006      	RJMP _0xF8
          _0xF1:
000893   +  	__POINTW1FN _0,56
000895 940e 1449 	CALL SUBOPT_0x32
000897 940e 1468 	CALL SUBOPT_0x37
          _0xF8:
         ;    1155      		}	
          _0xF0:
         ;    1156      	lcd_buffer[find('g')]=2;
000899 940e 146c 	CALL SUBOPT_0x38
         ;    1157      	
         ;    1158      	if(out_st[0])lcd_buffer[1]=3; 
00089b 91e0 0346 	LDS  R30,_out_st
00089d 30e0      	CPI  R30,0
00089e f019      	BREQ _0xF9
00089f e0e3      	LDI  R30,LOW(3)
0008a0   +  	__PUTB1MN _lcd_buffer,1
         ;    1159      	
         ;    1160      	
         ;    1161      	if((ind_cnt>=15)&&(ind_cnt<=35))
          _0xF9:
0008a2 91a0 0325 	LDS  R26,_ind_cnt
0008a4 30af      	CPI  R26,LOW(0xF)
0008a5 f018      	BRLO _0xFB
0008a6 e2e3      	LDI  R30,LOW(35)
0008a7 17ea      	CP   R30,R26
0008a8 f408      	BRSH _0xFC
          _0xFB:
0008a9 c01a      	RJMP _0xFA
          _0xFC:
         ;    1162      		{
         ;    1163      		sub_bgnd("2   !gC",'@',0);
0008aa   +  	__POINTW1FN _0,62
0008ac 940e 1477 	CALL SUBOPT_0x39
0008ae 940e 07c0 	CALL _sub_bgnd
         ;    1164      		if(nd[1])sub_bgnd("Н.Д.",'!',-1);
0008b0   +  	__GETB1MN _nd,1
0008b2 30e0      	CPI  R30,0
0008b3 f039      	BREQ _0xFD
0008b4   +  	__POINTW1FN _0,43
0008b6 940e 1449 	CALL SUBOPT_0x32
0008b8 940e 144e 	CALL SUBOPT_0x33
         ;    1165      		else int2lcd_mm(temper[1],'!',0);
0008ba c008      	RJMP _0xFE
          _0xFD:
0008bb   +  	__GETW1MN _temper,2
0008bf 940e 1445 	CALL SUBOPT_0x31
0008c1 940e 073c 	CALL _int2lcd_mm
          _0xFE:
         ;    1166      		}
         ;    1167      	else 
0008c3 c040      	RJMP _0xFF
          _0xFA:
         ;    1168      		{
         ;    1169      		sub_bgnd("2  #@0!",'@',0);
0008c4   +  	__POINTW1FN _0,70
0008c6 940e 1477 	CALL SUBOPT_0x39
0008c8 940e 07c0 	CALL _sub_bgnd
         ;    1170      		if(wrk_state[1])
0008ca   +  	__POINTW2MN _wrk_state,2
0008cc 940e 16b0 	CALL __EEPROMRDW
0008ce 9730      	SBIW R30,0
0008cf f171      	BREQ _0x100
         ;    1171      			{
         ;    1172      			//int2lcd(wrk_time_cnt,'1',0); 
         ;    1173      			int2lcd(wrk_time_cnt[1]%60,'!',0);
0008d0   +  	__GETW2MN _wrk_time_cnt,2
0008d4 940e 1452 	CALL SUBOPT_0x34
0008d6 940e 06a6 	CALL _int2lcd
         ;    1174 				int2lcd(wrk_time_cnt[1]/60,'#',0); 
0008d8   +  	__GETW2MN _wrk_time_cnt,2
0008dc 940e 1457 	CALL SUBOPT_0x35
0008de 940e 06a6 	CALL _int2lcd
         ;    1175 				
         ;    1176 				if((ee_time_mode[1]==0)||(wrk_time_cnt_flag[1]==1))
0008e0   +  	__POINTW2MN _ee_time_mode,2
0008e2 940e 16b0 	CALL __EEPROMRDW
0008e4 9730      	SBIW R30,0
0008e5 f041      	BREQ _0x102
0008e6   +  	__GETW1MN _wrk_time_cnt_flag,2
0008ea 30e1      	CPI  R30,LOW(0x1)
0008eb e0a0      	LDI  R26,HIGH(0x1)
0008ec 07fa      	CPC  R31,R26
0008ed f459      	BRNE _0x101
          _0x102:
         ;    1177 					{
         ;    1178 					if(bFL2)lcd_buffer[find('@')]=':';
0008ee fe36      	SBRS R3,6
0008ef c004      	RJMP _0x104
0008f0 940e 145f 	CALL SUBOPT_0x36
0008f2 e3ea      	LDI  R30,LOW(58)
0008f3 c003      	RJMP _0x263
         ;    1179 					else lcd_buffer[find('@')]=' ';
          _0x104:
0008f4 940e 145f 	CALL SUBOPT_0x36
0008f6 e2e0      	LDI  R30,LOW(32)
          _0x263:
0008f7 93ec      	ST   X,R30
         ;    1180 					} 
         ;    1181 				else lcd_buffer[find('@')]=':';
0008f8 c004      	RJMP _0x106
          _0x101:
0008f9 940e 145f 	CALL SUBOPT_0x36
0008fb e3ea      	LDI  R30,LOW(58)
0008fc 93ec      	ST   X,R30
          _0x106:
         ;    1182      			}
         ;    1183 			else sub_bgnd("ВЫКЛ.",'!',-4);     			
0008fd c006      	RJMP _0x107
          _0x100:
0008fe   +  	__POINTW1FN _0,56
000900 940e 1449 	CALL SUBOPT_0x32
000902 940e 1468 	CALL SUBOPT_0x37
          _0x107:
         ;    1184      		}	
          _0xFF:
         ;    1185      	lcd_buffer[find('g')]=2;
000904 940e 146c 	CALL SUBOPT_0x38
         ;    1186      	
         ;    1187      	if(out_st[1])lcd_buffer[9]=3;     	
000906   +  	__GETB1MN _out_st,1
000908 30e0      	CPI  R30,0
000909 f019      	BREQ _0x108
00090a e0e3      	LDI  R30,LOW(3)
00090b   +  	__PUTB1MN _lcd_buffer,9
         ;    1188  
         ;    1189       	if((ind_cnt>=10)&&(ind_cnt<=30))
          _0x108:
00090d 91a0 0325 	LDS  R26,_ind_cnt
00090f 30aa      	CPI  R26,LOW(0xA)
000910 f018      	BRLO _0x10A
000911 e1ee      	LDI  R30,LOW(30)
000912 17ea      	CP   R30,R26
000913 f408      	BRSH _0x10B
          _0x10A:
000914 c01a      	RJMP _0x109
          _0x10B:
         ;    1190      		{
         ;    1191      		sub_bgnd("3   !gC",'#',0);
000915   +  	__POINTW1FN _0,78
000917 940e 147b 	CALL SUBOPT_0x3A
000919 940e 07c0 	CALL _sub_bgnd
         ;    1192      		if(nd[2])sub_bgnd("Н.Д.",'!',-1);
00091b   +  	__GETB1MN _nd,2
00091d 30e0      	CPI  R30,0
00091e f039      	BREQ _0x10C
00091f   +  	__POINTW1FN _0,43
000921 940e 1449 	CALL SUBOPT_0x32
000923 940e 144e 	CALL SUBOPT_0x33
         ;    1193      		else int2lcd_mm(temper[2],'!',0);
000925 c008      	RJMP _0x10D
          _0x10C:
000926   +  	__GETW1MN _temper,4
00092a 940e 1445 	CALL SUBOPT_0x31
00092c 940e 073c 	CALL _int2lcd_mm
          _0x10D:
         ;    1194      		}
         ;    1195      	else 
00092e c040      	RJMP _0x10E
          _0x109:
         ;    1196      		{
         ;    1197      		sub_bgnd("3  #@0!",'#',0);
00092f   +  	__POINTW1FN _0,86
000931 940e 147b 	CALL SUBOPT_0x3A
000933 940e 07c0 	CALL _sub_bgnd
         ;    1198      		if(wrk_state[2])
000935   +  	__POINTW2MN _wrk_state,4
000937 940e 16b0 	CALL __EEPROMRDW
000939 9730      	SBIW R30,0
00093a f171      	BREQ _0x10F
         ;    1199      			{
         ;    1200          			int2lcd(wrk_time_cnt[2]%60,'!',0);
00093b   +  	__GETW2MN _wrk_time_cnt,4
00093f 940e 1452 	CALL SUBOPT_0x34
000941 940e 06a6 	CALL _int2lcd
         ;    1201 				int2lcd(wrk_time_cnt[2]/60,'#',0); 
000943   +  	__GETW2MN _wrk_time_cnt,4
000947 940e 1457 	CALL SUBOPT_0x35
000949 940e 06a6 	CALL _int2lcd
         ;    1202 				
         ;    1203 				if((ee_time_mode[2]==0)||(wrk_time_cnt_flag[2]==1))
00094b   +  	__POINTW2MN _ee_time_mode,4
00094d 940e 16b0 	CALL __EEPROMRDW
00094f 9730      	SBIW R30,0
000950 f041      	BREQ _0x111
000951   +  	__GETW1MN _wrk_time_cnt_flag,4
000955 30e1      	CPI  R30,LOW(0x1)
000956 e0a0      	LDI  R26,HIGH(0x1)
000957 07fa      	CPC  R31,R26
000958 f459      	BRNE _0x110
          _0x111:
         ;    1204 					{
         ;    1205 					if(bFL2)lcd_buffer[find('@')]=':';
000959 fe36      	SBRS R3,6
00095a c004      	RJMP _0x113
00095b 940e 145f 	CALL SUBOPT_0x36
00095d e3ea      	LDI  R30,LOW(58)
00095e c003      	RJMP _0x264
         ;    1206 					else lcd_buffer[find('@')]=' ';
          _0x113:
00095f 940e 145f 	CALL SUBOPT_0x36
000961 e2e0      	LDI  R30,LOW(32)
          _0x264:
000962 93ec      	ST   X,R30
         ;    1207 					} 
         ;    1208 				else lcd_buffer[find('@')]=':';
000963 c004      	RJMP _0x115
          _0x110:
000964 940e 145f 	CALL SUBOPT_0x36
000966 e3ea      	LDI  R30,LOW(58)
000967 93ec      	ST   X,R30
          _0x115:
         ;    1209      			}
         ;    1210 			else sub_bgnd("ВЫКЛ.",'!',-4);     			
000968 c006      	RJMP _0x116
          _0x10F:
000969   +  	__POINTW1FN _0,56
00096b 940e 1449 	CALL SUBOPT_0x32
00096d 940e 1468 	CALL SUBOPT_0x37
          _0x116:
         ;    1211      		}	
          _0x10E:
         ;    1212      	lcd_buffer[find('g')]=2;
00096f 940e 146c 	CALL SUBOPT_0x38
         ;    1213      	
         ;    1214      	if(out_st[2])lcd_buffer[17]=3;     	
000971   +  	__GETB1MN _out_st,2
000973 30e0      	CPI  R30,0
000974 f019      	BREQ _0x117
000975 e0e3      	LDI  R30,LOW(3)
000976   +  	__PUTB1MN _lcd_buffer,17
         ;    1215  
         ;    1216      	if((ind_cnt>=5)&&(ind_cnt<=25))
          _0x117:
000978 91a0 0325 	LDS  R26,_ind_cnt
00097a 30a5      	CPI  R26,LOW(0x5)
00097b f018      	BRLO _0x119
00097c e1e9      	LDI  R30,LOW(25)
00097d 17ea      	CP   R30,R26
00097e f408      	BRSH _0x11A
          _0x119:
00097f c01a      	RJMP _0x118
          _0x11A:
         ;    1217      		{
         ;    1218      		sub_bgnd("4   !gC",'$',0);
000980   +  	__POINTW1FN _0,94
000982 940e 147f 	CALL SUBOPT_0x3B
000984 940e 07c0 	CALL _sub_bgnd
         ;    1219      		if(nd[3])sub_bgnd("Н.Д.",'!',-1);
000986   +  	__GETB1MN _nd,3
000988 30e0      	CPI  R30,0
000989 f039      	BREQ _0x11B
00098a   +  	__POINTW1FN _0,43
00098c 940e 1449 	CALL SUBOPT_0x32
00098e 940e 144e 	CALL SUBOPT_0x33
         ;    1220      		else int2lcd_mm(temper[3],'!',0);
000990 c008      	RJMP _0x11C
          _0x11B:
000991   +  	__GETW1MN _temper,6
000995 940e 1445 	CALL SUBOPT_0x31
000997 940e 073c 	CALL _int2lcd_mm
          _0x11C:
         ;    1221      		}
         ;    1222      	else 
000999 c040      	RJMP _0x11D
          _0x118:
         ;    1223      		{
         ;    1224      		sub_bgnd("4  #@0!",'$',0);
00099a   +  	__POINTW1FN _0,102
00099c 940e 147f 	CALL SUBOPT_0x3B
00099e 940e 07c0 	CALL _sub_bgnd
         ;    1225      		if(wrk_state[3])
0009a0   +  	__POINTW2MN _wrk_state,6
0009a2 940e 16b0 	CALL __EEPROMRDW
0009a4 9730      	SBIW R30,0
0009a5 f171      	BREQ _0x11E
         ;    1226      			{
         ;    1227          			int2lcd(wrk_time_cnt[3]%60,'!',0);
0009a6   +  	__GETW2MN _wrk_time_cnt,6
0009aa 940e 1452 	CALL SUBOPT_0x34
0009ac 940e 06a6 	CALL _int2lcd
         ;    1228 				int2lcd(wrk_time_cnt[3]/60,'#',0); 
0009ae   +  	__GETW2MN _wrk_time_cnt,6
0009b2 940e 1457 	CALL SUBOPT_0x35
0009b4 940e 06a6 	CALL _int2lcd
         ;    1229 				
         ;    1230 				if((ee_time_mode[3]==0)||(wrk_time_cnt_flag[3]==1))
0009b6   +  	__POINTW2MN _ee_time_mode,6
0009b8 940e 16b0 	CALL __EEPROMRDW
0009ba 9730      	SBIW R30,0
0009bb f041      	BREQ _0x120
0009bc   +  	__GETW1MN _wrk_time_cnt_flag,6
0009c0 30e1      	CPI  R30,LOW(0x1)
0009c1 e0a0      	LDI  R26,HIGH(0x1)
0009c2 07fa      	CPC  R31,R26
0009c3 f459      	BRNE _0x11F
          _0x120:
         ;    1231 					{
         ;    1232 					if(bFL2)lcd_buffer[find('@')]=':';
0009c4 fe36      	SBRS R3,6
0009c5 c004      	RJMP _0x122
0009c6 940e 145f 	CALL SUBOPT_0x36
0009c8 e3ea      	LDI  R30,LOW(58)
0009c9 c003      	RJMP _0x265
         ;    1233 					else lcd_buffer[find('@')]=' ';
          _0x122:
0009ca 940e 145f 	CALL SUBOPT_0x36
0009cc e2e0      	LDI  R30,LOW(32)
          _0x265:
0009cd 93ec      	ST   X,R30
         ;    1234 					} 
         ;    1235 				else lcd_buffer[find('@')]=':';
0009ce c004      	RJMP _0x124
          _0x11F:
0009cf 940e 145f 	CALL SUBOPT_0x36
0009d1 e3ea      	LDI  R30,LOW(58)
0009d2 93ec      	ST   X,R30
          _0x124:
         ;    1236      			}
         ;    1237 			else sub_bgnd("ВЫКЛ.",'!',-4);     			
0009d3 c006      	RJMP _0x125
          _0x11E:
0009d4   +  	__POINTW1FN _0,56
0009d6 940e 1449 	CALL SUBOPT_0x32
0009d8 940e 1468 	CALL SUBOPT_0x37
          _0x125:
         ;    1238      		}	
          _0x11D:
         ;    1239      	lcd_buffer[find('g')]=2;
0009da 940e 146c 	CALL SUBOPT_0x38
         ;    1240      	
         ;    1241      	if(out_st[3])lcd_buffer[25]=3;     	     	
0009dc   +  	__GETB1MN _out_st,3
0009de 30e0      	CPI  R30,0
0009df f019      	BREQ _0x126
0009e0 e0e3      	LDI  R30,LOW(3)
0009e1   +  	__PUTB1MN _lcd_buffer,25
         ;    1242 		}
          _0x126:
         ;    1243 	else if(ind_mode==im_2)
0009e3 c012      	RJMP _0x127
          _0xE9:
0009e4 e3a6      	LDI  R26,LOW(_ind_mode)
0009e5 e0b0      	LDI  R27,HIGH(_ind_mode)
0009e6 940e 16b0 	CALL __EEPROMRDW
0009e8 30e1      	CPI  R30,LOW(0x1)
0009e9 e0a0      	LDI  R26,HIGH(0x1)
0009ea 07fa      	CPC  R31,R26
0009eb f451      	BRNE _0x128
         ;    1244 		{
         ;    1245 		bgnd_par(	"1       2       ",
         ;    1246  				"3       4       "); 
0009ec   +  	__POINTW1FN _0,110
0009ee 93fa      	ST   -Y,R31
0009ef 93ea      	ST   -Y,R30
0009f0   +  	__POINTW1FN _0,127
0009f2 93fa      	ST   -Y,R31
0009f3 93ea      	ST   -Y,R30
0009f4 940e 07d8 	CALL _bgnd_par
         ;    1247           }	     
         ;    1248 	} 
          _0x128:
          _0x127:
         ;    1249 	
         ;    1250 else if(ind==iDeb)
0009f6 c20d      	RJMP _0x129
          _0xE8:
0009f7 e1e8      	LDI  R30,LOW(24)
0009f8 e0f0      	LDI  R31,HIGH(24)
0009f9 15e6      	CP   R30,R6
0009fa 05f7      	CPC  R31,R7
0009fb f011      	BREQ PC+3
0009fc 940c 0a55 	JMP _0x12A
         ;    1251 	{
         ;    1252 	bgnd_par(	"       !       @",
         ;    1253  			"       #       $");
0009fe   +  	__POINTW1FN _0,144
000a00 93fa      	ST   -Y,R31
000a01 93ea      	ST   -Y,R30
000a02   +  	__POINTW1FN _0,161
000a04 93fa      	ST   -Y,R31
000a05 93ea      	ST   -Y,R30
000a06 940e 07d8 	CALL _bgnd_par
         ;    1254 	int2lcdxy(adc_bank_[0],0x30,0);	
000a08 91e0 032e 	LDS  R30,_adc_bank_
000a0a 91f0 032f 	LDS  R31,_adc_bank_+1
000a0c 93fa      	ST   -Y,R31
000a0d 93ea      	ST   -Y,R30
000a0e e3e0      	LDI  R30,LOW(48)
000a0f 940e 1326 	CALL SUBOPT_0x1C
000a11 940e 06f0 	CALL _int2lcdxy
         ;    1255 	int2lcdxy(adc_bank_[1],0xb0,0);
000a13   +  	__GETW1MN _adc_bank_,2
000a17 93fa      	ST   -Y,R31
000a18 93ea      	ST   -Y,R30
000a19 ebe0      	LDI  R30,LOW(176)
000a1a 940e 1326 	CALL SUBOPT_0x1C
000a1c 940e 06f0 	CALL _int2lcdxy
         ;    1256 	int2lcdxy(adc_bank_[2],0x31,0);
000a1e   +  	__GETW1MN _adc_bank_,4
000a22 93fa      	ST   -Y,R31
000a23 93ea      	ST   -Y,R30
000a24 e3e1      	LDI  R30,LOW(49)
000a25 940e 1326 	CALL SUBOPT_0x1C
000a27 940e 06f0 	CALL _int2lcdxy
         ;    1257 	int2lcdxy(adc_bank_[3],0xb1,0); 
000a29   +  	__GETW1MN _adc_bank_,6
000a2d 93fa      	ST   -Y,R31
000a2e 93ea      	ST   -Y,R30
000a2f ebe1      	LDI  R30,LOW(177)
000a30 940e 1326 	CALL SUBOPT_0x1C
000a32 940e 06f0 	CALL _int2lcdxy
         ;    1258 	
         ;    1259 	int2lcd_mm(temper[0],'!',0);	
000a34 91e0 0326 	LDS  R30,_temper
000a36 91f0 0327 	LDS  R31,_temper+1
000a38 940e 1445 	CALL SUBOPT_0x31
000a3a 940e 073c 	CALL _int2lcd_mm
         ;    1260 	int2lcd_mm(temper[1],'@',0);
000a3c   +  	__GETW1MN _temper,2
000a40 940e 1477 	CALL SUBOPT_0x39
000a42 940e 073c 	CALL _int2lcd_mm
         ;    1261 	int2lcd_mm(temper[2],'#',0);
000a44   +  	__GETW1MN _temper,4
000a48 940e 147b 	CALL SUBOPT_0x3A
000a4a 940e 073c 	CALL _int2lcd_mm
         ;    1262 	int2lcd_mm(temper[3],'$',0);	
000a4c   +  	__GETW1MN _temper,6
000a50 940e 147f 	CALL SUBOPT_0x3B
000a52 940e 073c 	CALL _int2lcd_mm
         ;    1263 	} 
         ;    1264 
         ;    1265 else if(ind==iMn_)
000a54 c1af      	RJMP _0x12B
          _0x12A:
000a55 e0e1      	LDI  R30,LOW(1)
000a56 e0f0      	LDI  R31,HIGH(1)
000a57 15e6      	CP   R30,R6
000a58 05f7      	CPC  R31,R7
000a59 f011      	BREQ PC+3
000a5a 940c 0ad9 	JMP _0x12C
         ;    1266 	{
         ;    1267 	ptrs[0]=" Канал1    !    ";
000a5c   +  	__POINTW1FN _0,178
000a5e 83eb      	STD  Y+3,R30
000a5f 83fc      	STD  Y+3+1,R31
         ;    1268 	ptrs[1]=" Канал2    @    ";
000a60   +  	__POINTW1FN _0,195
000a62 83ed      	STD  Y+5,R30
000a63 83fe      	STD  Y+5+1,R31
         ;    1269 	ptrs[2]=" Канал3    #    ";
000a64   +  	__POINTW1FN _0,212
000a66 83ef      	STD  Y+7,R30
000a67 87f8      	STD  Y+7+1,R31
         ;    1270 	ptrs[3]=" Канал4    $    ";
000a68   +  	__POINTW1FN _0,229
000a6a 87e9      	STD  Y+9,R30
000a6b 87fa      	STD  Y+9+1,R31
         ;    1271 	ptrs[4]=" Выход          ";
000a6c   +  	__POINTW1FN _0,246
000a6e 87eb      	STD  Y+11,R30
000a6f 87fc      	STD  Y+11+1,R31
         ;    1272 	
         ;    1273 	if(index_set>sub_ind)index_set=sub_ind;
000a70 14bd      	CP   R11,R13
000a71 f414      	BRGE _0x12D
000a72 2cdb      	MOV  R13,R11
         ;    1274 	else if(index_set<(sub_ind-1)) index_set=sub_ind-1;
000a73 c005      	RJMP _0x12E
          _0x12D:
000a74 940e 1483 	CALL SUBOPT_0x3C
000a76 f414      	BRGE _0x12F
000a77 940e 1487 	CALL SUBOPT_0x3D
         ;    1275 	
         ;    1276 	bgnd_par(ptrs[index_set],ptrs[index_set+1]);
          _0x12F:
          _0x12E:
000a79 940e 148b 	CALL SUBOPT_0x3E
         ;    1277 	
         ;    1278 	if(index_set==sub_ind) lcd_buffer[0]=1;
000a7b 14bd      	CP   R11,R13
000a7c f421      	BRNE _0x130
000a7d e0e1      	LDI  R30,LOW(1)
000a7e 93e0 02a2 	STS  _lcd_buffer,R30
         ;    1279 	else if(index_set==(sub_ind-1)) lcd_buffer[16]=1;
000a80 c007      	RJMP _0x131
          _0x130:
000a81 2deb      	MOV  R30,R11
000a82 50e1      	SUBI R30,LOW(1)
000a83 15ed      	CP   R30,R13
000a84 f419      	BRNE _0x132
000a85 e0e1      	LDI  R30,LOW(1)
000a86   +  	__PUTB1MN _lcd_buffer,16
         ;    1280 
         ;    1281 	if(wrk_state[0]==wsON)sub_bgnd("ВКЛ.",'!',0);
          _0x132:
          _0x131:
000a88 e1a9      	LDI  R26,LOW(_wrk_state)
000a89 e0b0      	LDI  R27,HIGH(_wrk_state)
000a8a 940e 16b0 	CALL __EEPROMRDW
000a8c 30e1      	CPI  R30,LOW(0x1)
000a8d e0a0      	LDI  R26,HIGH(0x1)
000a8e 07fa      	CPC  R31,R26
000a8f f419      	BRNE _0x133
000a90   +  	__POINTW1FN _0,263
000a92 c002      	RJMP _0x266
         ;    1282 	else sub_bgnd("ВЫКЛ.",'!',0);  
          _0x133:
000a93   +  	__POINTW1FN _0,56
          _0x266:
000a95 93fa      	ST   -Y,R31
000a96 93ea      	ST   -Y,R30
000a97 e2e1      	LDI  R30,LOW(33)
000a98 940e 1326 	CALL SUBOPT_0x1C
000a9a 940e 07c0 	CALL _sub_bgnd
         ;    1283 	
         ;    1284 	if(wrk_state[1]==wsON)sub_bgnd("ВКЛ.",'@',0);
000a9c   +  	__POINTW2MN _wrk_state,2
000a9e 940e 16b0 	CALL __EEPROMRDW
000aa0 30e1      	CPI  R30,LOW(0x1)
000aa1 e0a0      	LDI  R26,HIGH(0x1)
000aa2 07fa      	CPC  R31,R26
000aa3 f419      	BRNE _0x135
000aa4   +  	__POINTW1FN _0,263
000aa6 c002      	RJMP _0x267
         ;    1285 	else sub_bgnd("ВЫКЛ.",'@',0);
          _0x135:
000aa7   +  	__POINTW1FN _0,56
          _0x267:
000aa9 93fa      	ST   -Y,R31
000aaa 93ea      	ST   -Y,R30
000aab e4e0      	LDI  R30,LOW(64)
000aac 940e 1326 	CALL SUBOPT_0x1C
000aae 940e 07c0 	CALL _sub_bgnd
         ;    1286 	
         ;    1287 	if(wrk_state[2]==wsON)sub_bgnd("ВКЛ.",'#',0);
000ab0   +  	__POINTW2MN _wrk_state,4
000ab2 940e 16b0 	CALL __EEPROMRDW
000ab4 30e1      	CPI  R30,LOW(0x1)
000ab5 e0a0      	LDI  R26,HIGH(0x1)
000ab6 07fa      	CPC  R31,R26
000ab7 f419      	BRNE _0x137
000ab8   +  	__POINTW1FN _0,263
000aba c002      	RJMP _0x268
         ;    1288 	else sub_bgnd("ВЫКЛ.",'#',0);
          _0x137:
000abb   +  	__POINTW1FN _0,56
          _0x268:
000abd 93fa      	ST   -Y,R31
000abe 93ea      	ST   -Y,R30
000abf e2e3      	LDI  R30,LOW(35)
000ac0 940e 1326 	CALL SUBOPT_0x1C
000ac2 940e 07c0 	CALL _sub_bgnd
         ;    1289 	
         ;    1290 	if(wrk_state[3]==wsON)sub_bgnd("ВКЛ.",'$',0);
000ac4   +  	__POINTW2MN _wrk_state,6
000ac6 940e 16b0 	CALL __EEPROMRDW
000ac8 30e1      	CPI  R30,LOW(0x1)
000ac9 e0a0      	LDI  R26,HIGH(0x1)
000aca 07fa      	CPC  R31,R26
000acb f419      	BRNE _0x139
000acc   +  	__POINTW1FN _0,263
000ace c002      	RJMP _0x269
         ;    1291 	else sub_bgnd("ВЫКЛ.",'$',0);			
          _0x139:
000acf   +  	__POINTW1FN _0,56
          _0x269:
000ad1 93fa      	ST   -Y,R31
000ad2 93ea      	ST   -Y,R30
000ad3 e2e4      	LDI  R30,LOW(36)
000ad4 940e 1326 	CALL SUBOPT_0x1C
000ad6 940e 07c0 	CALL _sub_bgnd
         ;    1292 	}	
         ;    1293 	
         ;    1294 else if(ind==iCh)
000ad8 c12b      	RJMP _0x13B
          _0x12C:
000ad9 e0e2      	LDI  R30,LOW(2)
000ada e0f0      	LDI  R31,HIGH(2)
000adb 15e6      	CP   R30,R6
000adc 05f7      	CPC  R31,R7
000add f011      	BREQ PC+3
000ade 940c 0bc9 	JMP _0x13C
         ;    1295 	{
         ;    1296 	ptrs[0]=" Кн!   o   @    ";
000ae0   +  	__POINTW1FN _0,268
000ae2 83eb      	STD  Y+3,R30
000ae3 83fc      	STD  Y+3+1,R31
         ;    1297 	ptrs[1]="     #gC   $%0^ ";
000ae4   +  	__POINTW1FN _0,285
000ae6 83ed      	STD  Y+5,R30
000ae7 83fe      	STD  Y+5+1,R31
         ;    1298 	ptrs[2]=" Tуст.       >gC";
000ae8   +  	__POINTW1FN _0,302
000aea 83ef      	STD  Y+7,R30
000aeb 87f8      	STD  Y+7+1,R31
         ;    1299 	ptrs[3]=" Время:    (ч0)м"; 
000aec   +  	__POINTW1FN _0,319
000aee 87e9      	STD  Y+9,R30
000aef 87fa      	STD  Y+9+1,R31
         ;    1300 	ptrs[4]=" Режим времени <";
000af0   +  	__POINTW1FN _0,336
000af2 87eb      	STD  Y+11,R30
000af3 87fc      	STD  Y+11+1,R31
         ;    1301 	if(wrk_state[sub_ind1]==wsON)ptrs[5]=" Стоп           "; 
000af4 940e 14a6 	CALL SUBOPT_0x3F
000af6 f419      	BRNE _0x13D
000af7   +  	__POINTW1FN _0,353
000af9 c002      	RJMP _0x26A
         ;    1302 	else ptrs[5]=" Старт          ";	
          _0x13D:
000afa   +  	__POINTW1FN _0,370
          _0x26A:
000afc 87ed      	STD  Y+13,R30
000afd 87fe      	STD  Y+13+1,R31
         ;    1303 	ptrs[6]=" Выход          ";
000afe   +  	__POINTW1FN _0,246
000b00 87ef      	STD  Y+15,R30
000b01 8bf8      	STD  Y+15+1,R31
         ;    1304 	ptrs[7]=" Калибровка     "; 
000b02   +  	__POINTW1FN _0,387
000b04 8be9      	STD  Y+17,R30
000b05 8bfa      	STD  Y+17+1,R31
         ;    1305 	if(index_set>sub_ind)index_set=sub_ind;
000b06 14bd      	CP   R11,R13
000b07 f414      	BRGE _0x13F
000b08 2cdb      	MOV  R13,R11
         ;    1306 	else if(index_set<(sub_ind-1))index_set=sub_ind-1;
000b09 c005      	RJMP _0x140
          _0x13F:
000b0a 940e 1483 	CALL SUBOPT_0x3C
000b0c f414      	BRGE _0x141
000b0d 940e 1487 	CALL SUBOPT_0x3D
         ;    1307 
         ;    1308 	bgnd_par(ptrs[index_set],ptrs[index_set+1]);
          _0x141:
          _0x140:
000b0f 940e 148b 	CALL SUBOPT_0x3E
         ;    1309 	int2lcd(sub_ind1+1,'!',0);
000b11 940e 14b4 	CALL SUBOPT_0x40
000b13 940e 06a6 	CALL _int2lcd
         ;    1310 	int2lcd(t_ust[sub_ind1],'>',0);
000b15 940e 14b8 	CALL SUBOPT_0x41
000b17 93fa      	ST   -Y,R31
000b18 93ea      	ST   -Y,R30
000b19 e3ee      	LDI  R30,LOW(62)
000b1a 940e 1326 	CALL SUBOPT_0x1C
000b1c 940e 06a6 	CALL _int2lcd
         ;    1311 	if(wrk_state[sub_ind1]==wsON)
000b1e 940e 14a6 	CALL SUBOPT_0x3F
000b20 f5c9      	BRNE _0x142
         ;    1312 		{
         ;    1313 		sub_bgnd("ВКЛ.",'@',0);
000b21   +  	__POINTW1FN _0,263
000b23 940e 1477 	CALL SUBOPT_0x39
000b25 940e 07c0 	CALL _sub_bgnd
         ;    1314 		int2lcd(wrk_time_cnt[sub_ind1]%60,'^',0);
000b27 2dec      	MOV  R30,R12
000b28 940e 12f2 	CALL SUBOPT_0x15
000b2a 940e 14c3 	CALL SUBOPT_0x42
000b2c 940e 166c 	CALL __MODW21
000b2e 93fa      	ST   -Y,R31
000b2f 93ea      	ST   -Y,R30
000b30 e5ee      	LDI  R30,LOW(94)
000b31 940e 1326 	CALL SUBOPT_0x1C
000b33 940e 06a6 	CALL _int2lcd
         ;    1315 		int2lcd(wrk_time_cnt[sub_ind1]/60,'$',0);
000b35 2dec      	MOV  R30,R12
000b36 940e 12f2 	CALL SUBOPT_0x15
000b38 940e 14c3 	CALL SUBOPT_0x42
000b3a 940e 1639 	CALL __DIVW21
000b3c 940e 147f 	CALL SUBOPT_0x3B
000b3e 940e 14c9 	CALL SUBOPT_0x43
         ;    1316 		if((ee_time_mode[sub_ind1]==0)||(wrk_time_cnt_flag[sub_ind1]==1))
000b40 f049      	BREQ _0x144
000b41 2dec      	MOV  R30,R12
000b42 e0ad      	LDI  R26,LOW(_wrk_time_cnt_flag)
000b43 e0b3      	LDI  R27,HIGH(_wrk_time_cnt_flag)
000b44 940e 14d7 	CALL SUBOPT_0x44
000b46 30e1      	CPI  R30,LOW(0x1)
000b47 e0a0      	LDI  R26,HIGH(0x1)
000b48 07fa      	CPC  R31,R26
000b49 f459      	BRNE _0x143
          _0x144:
         ;    1317 			{
         ;    1318 			if(bFL2)lcd_buffer[find('%')]=':';
000b4a fe36      	SBRS R3,6
000b4b c004      	RJMP _0x146
000b4c 940e 14df 	CALL SUBOPT_0x45
000b4e e3ea      	LDI  R30,LOW(58)
000b4f c003      	RJMP _0x26B
         ;    1319 			else lcd_buffer[find('%')]=' ';
          _0x146:
000b50 940e 14df 	CALL SUBOPT_0x45
000b52 e2e0      	LDI  R30,LOW(32)
          _0x26B:
000b53 93ec      	ST   X,R30
         ;    1320 			} 
         ;    1321 		else lcd_buffer[find('%')]=':';
000b54 c004      	RJMP _0x148
          _0x143:
000b55 940e 14df 	CALL SUBOPT_0x45
000b57 e3ea      	LDI  R30,LOW(58)
000b58 93ec      	ST   X,R30
          _0x148:
         ;    1322 		}
         ;    1323 	else 
000b59 c010      	RJMP _0x149
          _0x142:
         ;    1324 		{
         ;    1325 		sub_bgnd("ВЫКЛ.",'@',0);
000b5a   +  	__POINTW1FN _0,56
000b5c 940e 1477 	CALL SUBOPT_0x39
000b5e 940e 07c0 	CALL _sub_bgnd
         ;    1326 		sub_bgnd("    ",'^',-3);
000b60   +  	__POINTW1FN _0,13
000b62 93fa      	ST   -Y,R31
000b63 93ea      	ST   -Y,R30
000b64 e5ee      	LDI  R30,LOW(94)
000b65 93ea      	ST   -Y,R30
000b66 efed      	LDI  R30,LOW(253)
000b67 93ea      	ST   -Y,R30
000b68 940e 07c0 	CALL _sub_bgnd
         ;    1327 		}
          _0x149:
         ;    1328 	if(index_set)
000b6a 20dd      	TST  R13
000b6b f069      	BREQ _0x14A
         ;    1329 		{
         ;    1330 		if((sub_ind-index_set)==1)lcd_buffer[16]=1; 
000b6c 2deb      	MOV  R30,R11
000b6d 19ed      	SUB  R30,R13
000b6e 30e1      	CPI  R30,LOW(0x1)
000b6f f421      	BRNE _0x14B
000b70 e0e1      	LDI  R30,LOW(1)
000b71   +  	__PUTB1MN _lcd_buffer,16
         ;    1331 		else if(sub_ind==index_set)lcd_buffer[0]=1;
000b73 c005      	RJMP _0x14C
          _0x14B:
000b74 14db      	CP   R13,R11
000b75 f419      	BRNE _0x14D
000b76 e0e1      	LDI  R30,LOW(1)
000b77 93e0 02a2 	STS  _lcd_buffer,R30
         ;    1332 		} 
          _0x14D:
          _0x14C:
         ;    1333 	int2lcd(ee_wrk_time[sub_ind1]/60,'(',0);
          _0x14A:
000b79 2dec      	MOV  R30,R12
000b7a 940e 1287 	CALL SUBOPT_0x7
000b7c 01df      	MOVW R26,R30
000b7d e3ec      	LDI  R30,LOW(60)
000b7e e0f0      	LDI  R31,HIGH(60)
000b7f 940e 1639 	CALL __DIVW21
000b81 93fa      	ST   -Y,R31
000b82 93ea      	ST   -Y,R30
000b83 e2e8      	LDI  R30,LOW(40)
000b84 940e 1326 	CALL SUBOPT_0x1C
000b86 940e 06a6 	CALL _int2lcd
         ;    1334 	int2lcd(ee_wrk_time[sub_ind1]%60,')',0);
000b88 2dec      	MOV  R30,R12
000b89 940e 1287 	CALL SUBOPT_0x7
000b8b 01df      	MOVW R26,R30
000b8c e3ec      	LDI  R30,LOW(60)
000b8d e0f0      	LDI  R31,HIGH(60)
000b8e 940e 166c 	CALL __MODW21
000b90 93fa      	ST   -Y,R31
000b91 93ea      	ST   -Y,R30
000b92 e2e9      	LDI  R30,LOW(41)
000b93 940e 1326 	CALL SUBOPT_0x1C
000b95 940e 14c9 	CALL SUBOPT_0x43
         ;    1335 	if(ee_time_mode[sub_ind1]==0)int2lcd(1,'<',0);
000b97 f419      	BRNE _0x14E
000b98 e0e1      	LDI  R30,LOW(1)
000b99 e0f0      	LDI  R31,HIGH(1)
000b9a c002      	RJMP _0x26C
         ;    1336 	else int2lcd(2,'<',0); 
          _0x14E:
000b9b e0e2      	LDI  R30,LOW(2)
000b9c e0f0      	LDI  R31,HIGH(2)
          _0x26C:
000b9d 93fa      	ST   -Y,R31
000b9e 93ea      	ST   -Y,R30
000b9f e3ec      	LDI  R30,LOW(60)
000ba0 940e 1326 	CALL SUBOPT_0x1C
000ba2 940e 06a6 	CALL _int2lcd
         ;    1337 	if(nd[sub_ind1])sub_bgnd("Н.Д. ",'#',-2);
000ba4 940e 14e8 	CALL SUBOPT_0x46
000ba6 f041      	BREQ _0x150
000ba7   +  	__POINTW1FN _0,404
000ba9 93fa      	ST   -Y,R31
000baa 93ea      	ST   -Y,R30
000bab e2e3      	LDI  R30,LOW(35)
000bac 940e 14ef 	CALL SUBOPT_0x47
         ;    1338 	else 
000bae c008      	RJMP _0x151
          _0x150:
         ;    1339 		{
         ;    1340 		int2lcd(temper[sub_ind1],'#',0);
000baf 940e 14f4 	CALL SUBOPT_0x48
000bb1 940e 147b 	CALL SUBOPT_0x3A
000bb3 940e 06a6 	CALL _int2lcd
         ;    1341 		lcd_buffer[find('g')]=2;
000bb5 940e 146c 	CALL SUBOPT_0x38
         ;    1342 		}
          _0x151:
         ;    1343 	lcd_buffer[find('g')]=2;	
000bb7 940e 146c 	CALL SUBOPT_0x38
         ;    1344 	
         ;    1345 	if(out_st[sub_ind1])lcd_buffer[find('o')]=3;	
000bb9 2dec      	MOV  R30,R12
000bba e0f0      	LDI  R31,0
000bbb 5bea      	SUBI R30,LOW(-_out_st)
000bbc 4ffc      	SBCI R31,HIGH(-_out_st)
000bbd 81e0      	LD   R30,Z
000bbe 30e0      	CPI  R30,0
000bbf f021      	BREQ _0x152
000bc0 940e 14f8 	CALL SUBOPT_0x49
000bc2 e0e3      	LDI  R30,LOW(3)
000bc3 c003      	RJMP _0x26D
         ;    1346 	else lcd_buffer[find('o')]=' ';
          _0x152:
000bc4 940e 14f8 	CALL SUBOPT_0x49
000bc6 e2e0      	LDI  R30,LOW(32)
          _0x26D:
000bc7 93ec      	ST   X,R30
         ;    1347  /*	int2lcdxy(adc_bank_[const_of_adc[sub_ind1]],0xf0,0);
         ;    1348 	int2lcdxy(nd[0],0x70,0);
         ;    1349 	int2lcdxy(nd[1],0x80,0);
         ;    1350 	int2lcdxy(nd[2],0x90,0);
         ;    1351 	int2lcdxy(nd[3],0xa0,0);*/
         ;    1352 	}
         ;    1353 	
         ;    1354 else if(ind==iK)
000bc8 c03b      	RJMP _0x154
          _0x13C:
000bc9 e0ea      	LDI  R30,LOW(10)
000bca e0f0      	LDI  R31,HIGH(10)
000bcb 15e6      	CP   R30,R6
000bcc 05f7      	CPC  R31,R7
000bcd f5b1      	BRNE _0x155
         ;    1355 	{
         ;    1356 	ptrs[0]=" T!      @gC    ";
000bce   +  	__POINTW1FN _0,410
000bd0 83eb      	STD  Y+3,R30
000bd1 83fc      	STD  Y+3+1,R31
         ;    1357 	ptrs[1]=" Выход          ";
000bd2   +  	__POINTW1FN _0,246
000bd4 83ed      	STD  Y+5,R30
000bd5 83fe      	STD  Y+5+1,R31
         ;    1358 	bgnd_par("   КАЛИБРОВКА   ",ptrs[sub_ind]);
000bd6   +  	__POINTW1FN _0,427
000bd8 93fa      	ST   -Y,R31
000bd9 93ea      	ST   -Y,R30
000bda 2deb      	MOV  R30,R11
000bdb e0f0      	LDI  R31,0
000bdc 01de      	MOVW R26,R28
000bdd 9615      	ADIW R26,5
000bde 0fee      	LSL  R30
000bdf 1fff      	ROL  R31
000be0 0fae      	ADD  R26,R30
000be1 1fbf      	ADC  R27,R31
000be2 940e 169b 	CALL __GETW1P
000be4 93fa      	ST   -Y,R31
000be5 93ea      	ST   -Y,R30
000be6 940e 07d8 	CALL _bgnd_par
         ;    1359 	int2lcd(sub_ind1+1,'!',0); 
000be8 940e 14b4 	CALL SUBOPT_0x40
000bea 940e 06a6 	CALL _int2lcd
         ;    1360 	if(nd[sub_ind1])sub_bgnd("Н.Д. ",'@',-2);
000bec 940e 14e8 	CALL SUBOPT_0x46
000bee f041      	BREQ _0x156
000bef   +  	__POINTW1FN _0,404
000bf1 93fa      	ST   -Y,R31
000bf2 93ea      	ST   -Y,R30
000bf3 e4e0      	LDI  R30,LOW(64)
000bf4 940e 14ef 	CALL SUBOPT_0x47
         ;    1361 	else 
000bf6 c008      	RJMP _0x157
          _0x156:
         ;    1362 		{
         ;    1363 		int2lcd(temper[sub_ind1],'@',0);
000bf7 940e 14f4 	CALL SUBOPT_0x48
000bf9 940e 1477 	CALL SUBOPT_0x39
000bfb 940e 06a6 	CALL _int2lcd
         ;    1364 		lcd_buffer[find('g')]=2; 
000bfd 940e 146c 	CALL SUBOPT_0x38
         ;    1365 		}	
          _0x157:
         ;    1366 			
         ;    1367 
         ;    1368 	if(sub_ind)lcd_buffer[16]=1;
000bff 20bb      	TST  R11
000c00 f019      	BREQ _0x158
000c01 e0e1      	LDI  R30,LOW(1)
000c02   +  	__PUTB1MN _lcd_buffer,16
         ;    1369 	
         ;    1370     /*	int2lcdxy(adc_bank_[const_of_adc[sub_ind1]],0x50,0);
         ;    1371 	int2lcdxy(K_t[sub_ind1],0xc0,0); */
         ;    1372 	}
          _0x158:
         ;    1373 		
         ;    1374 
         ;    1375 
         ;    1376 if(cnt_ind_nd) 	
          _0x155:
          _0x154:
          _0x13B:
          _0x12B:
          _0x129:
000c04 91e0 03a3 	LDS  R30,_cnt_ind_nd
000c06 30e0      	CPI  R30,0
000c07 f051      	BREQ _0x159
         ;    1377 	{
         ;    1378 	bgnd_par(		"     ДАТЧИК     ",
         ;    1379  				"   НЕИСПРАВЕН   ");
000c08   +  	__POINTW1FN _0,444
000c0a 93fa      	ST   -Y,R31
000c0b 93ea      	ST   -Y,R30
000c0c   +  	__POINTW1FN _0,461
000c0e 93fa      	ST   -Y,R31
000c0f 93ea      	ST   -Y,R30
000c10 940e 07d8 	CALL _bgnd_par
         ;    1380  	}		
         ;    1381 			 	
         ;    1382 /*bgnd(mess_Zero);
         ;    1383 int2lcdxy(adc_bank_[0],0x30,0);
         ;    1384 int2lcdxy(adc_bank_[1],0x70,0);
         ;    1385 int2lcdxy(adc_bank_[2],0xb0,0);
         ;    1386 int2lcdxy(adc_bank_[3],0xf0,0); 
         ;    1387 int2lcdxy(adc_bank_[4],0x31,0);
         ;    1388 int2lcdxy(adc_bank_[5],0x71,0);*/
         ;    1389 //int2lcdxy(adc_bank_[5],0xb0,0);
         ;    1390 //int2lcdxy(adc_bank_[6],0xf0,0);		
         ;    1391 /*//int2lcdxy(ind,0x30,0);
         ;    1392 //int2lcdxy(av_,0x70,0);
         ;    1393 //int2lcdxy(but,0xb0,0);
         ;    1394 //	int2lcdxy(temper_cnt1,0xe0,0);
         ;    1395 //	int2lcdxy(St,0x20,0);
         ;    1396 //	int2lcdxy(St1,0x50,0);
         ;    1397 //int2lcdxy(ctrl_stat,0x00,0); 
         ;    1398 /*int2lcdxy(St1,0xf0,0);
         ;    1399 int2lcdxy(St2,0xf1,0);
         ;    1400 int2lcdxy(St,0x20,0);*/
         ;    1401 /*int2lcdxy(K[ist],0x10,0); 
         ;    1402 int2lcdxy(St1,0x21,0);
         ;    1403 int2lcdxy(St2,0x51,0); */
         ;    1404 /*int2lcdxy(u_necc,0xa0,0);   
         ;    1405 int2lcdxy(u_necc,0xa0,0);*/
         ;    1406 //int2lcdxy(cntrl_stat,0x20,0);
         ;    1407 //int2lcdxy(cnt_blok,0x60,0); 
         ;    1408 //int2lcdxy(Ibat_p,0x70,0);
         ;    1409 //int2lcdxy(Ibat_mp,0xB0,0);
         ;    1410 //int2lcdxy(St,0xf0,0);
         ;    1411 
         ;    1412 //int2lcdxy(kb_cnt,0xa0,0);
         ;    1413 
         ;    1414 
         ;    1415 /*
         ;    1416 int2lcdxy(tzas_cnt,0xa0,0);
         ;    1417 int2lcdxy(cntrl_stat,0x20,0);*/
         ;    1418 
         ;    1419 //int2lcdxy(St_[1],0xf1,0);
         ;    1420 //int2lcdxy(St_[0],0xf0,0);
         ;    1421 
         ;    1422 //int2lcdxy(OFFBP1,0x10,0);
         ;    1423 //int2lcdxy(cnt_av_umin[0],0x30,0);
         ;    1424 //int2lcdxy(cnt_ubat,0xf0,0); 
         ;    1425 //int2lcdxy(cnt_ibat,0xc0,0); 
         ;    1426 
         ;    1427 //int2lcdxy(av_rele,0x20,0);
         ;    1428 //int2lcdxy(av_beep,0x50,0);
         ;    1429 //int2lcdxy(hour_apv_cnt,0xa0,0); 
         ;    1430 
         ;    1431 //int2lcdxy(main_apv_cnt,0xf0,0);
         ;    1432 //int2lcdxy(hour_apv_cnt,0xd0,0);
         ;    1433 
         ;    1434 
         ;    1435 //int2lcdxy(sub_ind,0x20,0);
         ;    1436 
         ;    1437 //int2lcdxy(OFFBP2,0xf0,0);
         ;    1438 //int2lcdxy(OFFBP1,0xe0,0);
         ;    1439 //int2lcdxy(St_[1],0xc0,0);
         ;    1440 //int2lcdxy(St_[0],0x90,0);
         ;    1441 //int2lcdxy(tzas_cnt,0x60,0);
         ;    1442 //int2lcdxy(num_necc,0x30,0);
         ;    1443 //int2lcdxy(adc_bank_[0],0x21,0); 
         ;    1444 
         ;    1445 /**/
         ;    1446 /*int2lcdxy(reset_apv_cnt,0xf0,0);
         ;    1447 int2lcdxy(main_apv_cnt,0x20,0);
         ;    1448 int2lcdxy(apv_cnt_1,0x70,0);
         ;    1449 int2lcdxy(hour_apv_cnt,0x21,0);*/
         ;    1450 
         ;    1451 /*int2lcdxy(cntrl_stat1,0x30,0);
         ;    1452 int2lcdxy(cntrl_stat2,0x31,0);
         ;    1453 int2lcdxy(Is[1],0xf1,0);
         ;    1454 int2lcdxy(Is[0],0xf0,0); */
         ;    1455 ruslcd(lcd_buffer);
          _0x159:
000c12 eae2      	LDI  R30,LOW(_lcd_buffer)
000c13 e0f2      	LDI  R31,HIGH(_lcd_buffer)
000c14 93fa      	ST   -Y,R31
000c15 93ea      	ST   -Y,R30
000c16 940e 0205 	CALL _ruslcd
         ;    1456 }
000c18 940e 16ea 	CALL __LOADLOCR3
000c1a 9669      	ADIW R28,25
000c1b 9508      	RET
         ;    1457 
         ;    1458 
         ;    1459 // Константы состояния кнопок
         ;    1460 #define butL 		0b10111111
         ;    1461 #define butR 		0b01111111
         ;    1462 #define butU 		0b11101111
         ;    1463 #define butD 		0b11011111
         ;    1464 #define butE   	0b11110111
         ;    1465 #define butL_ 		0b10111110
         ;    1466 #define butR_ 		0b01111110
         ;    1467 #define butU_ 		0b11101110
         ;    1468 #define butD_ 		0b11011110
         ;    1469 #define butE_   	0b11110110
         ;    1470 #define butLR 		0b00111111 
         ;    1471 #define butLR_ 	0b00111110
         ;    1472 #define butUD 		0b11001111
         ;    1473 #define butS 		0b11111101
         ;    1474 
         ;    1475 
         ;    1476 //-----------------------------------------------
         ;    1477 // Подпрограмма драйва до 7 кнопок одного порта, 
         ;    1478 // различает короткое и длинное нажатие,
         ;    1479 // срабатывает на отпускание кнопки, возможность
         ;    1480 // ускорения перебора при длинном нажатии...
         ;    1481 #define but_port PORTB
         ;    1482 #define but_dir  DDRB
         ;    1483 #define but_pin  PINB
         ;    1484 #define but_mask 0b00000111
         ;    1485 #define no_but   0b11111111
         ;    1486 #define but_on   5
         ;    1487 #define but_onL  20
         ;    1488 
         ;    1489 static char but_n;
         
          	.DSEG
          _but_n_G1:
0003a4      	.BYTE 0x1
         ;    1490 static char but_s;
          _but_s_G1:
0003a5      	.BYTE 0x1
         ;    1491 static char but0_cnt;
          _but0_cnt_G1:
0003a6      	.BYTE 0x1
         ;    1492 static char but1_cnt;
          _but1_cnt_G1:
0003a7      	.BYTE 0x1
         ;    1493 static char but_onL_temp;
          _but_onL_temp_G1:
0003a8      	.BYTE 0x1
         ;    1494 
         ;    1495 
         ;    1496 void but_drv(void)
         ;    1497 { 
         
          	.CSEG
          _but_drv:
         ;    1498 
         ;    1499 
         ;    1500 
         ;    1501 but_port|=(but_mask^0xff);
000c1c 940e 1501 	CALL SUBOPT_0x4A
         ;    1502 but_dir/*&=but_mask*/=0b00100110;
000c1e e2e6      	LDI  R30,LOW(38)
000c1f bbe7      	OUT  0x17,R30
         ;    1503 #asm
         ;    1504 nop
000c20 0000      nop
         ;    1505 nop
000c21 0000      nop
         ;    1506 nop
000c22 0000      nop
         ;    1507 nop
000c23 0000      nop
         ;    1508 #endasm
         
         ;    1509 
         ;    1510 but_n=but_pin|but_mask; 
000c24 b3e6      	IN   R30,0x16
000c25 60e7      	ORI  R30,LOW(0x7)
000c26 93e0 03a4 	STS  _but_n_G1,R30
         ;    1511 
         ;    1512 but_port|=(but_mask^0xff);
000c28 940e 1501 	CALL SUBOPT_0x4A
         ;    1513 but_dir/*&=but_mask*/=0b11011110;
000c2a edee      	LDI  R30,LOW(222)
000c2b bbe7      	OUT  0x17,R30
         ;    1514 #asm
         ;    1515 nop
000c2c 0000      nop
         ;    1516 nop
000c2d 0000      nop
         ;    1517 nop
000c2e 0000      nop
         ;    1518 nop
000c2f 0000      nop
         ;    1519 #endasm
         
         ;    1520 
         ;    1521 but_n&=(but_pin|0b11011111); 
000c30 b3e6      	IN   R30,0x16
000c31 6def      	ORI  R30,LOW(0xDF)
000c32 91a0 03a4 	LDS  R26,_but_n_G1
000c34 23ea      	AND  R30,R26
000c35 93e0 03a4 	STS  _but_n_G1,R30
         ;    1522 
         ;    1523 
         ;    1524 //plazma=but_pin;
         ;    1525 
         ;    1526 if((but_n==no_but)||(but_n!=but_s))
000c37 91a0 03a4 	LDS  R26,_but_n_G1
000c39 3faf      	CPI  R26,LOW(0xFF)
000c3a f019      	BREQ _0x15B
000c3b 940e 1505 	CALL SUBOPT_0x4B
000c3d f119      	BREQ _0x15A
          _0x15B:
         ;    1527  	{
         ;    1528  	speed=0;
000c3e 94e8      	CLT
000c3f f827      	BLD  R2,7
         ;    1529    	if (((but0_cnt>=but_on)||(but1_cnt!=0))&&(!l_but))
000c40 91a0 03a6 	LDS  R26,_but0_cnt_G1
000c42 30a5      	CPI  R26,LOW(0x5)
000c43 f420      	BRSH _0x15E
000c44 91a0 03a7 	LDS  R26,_but1_cnt_G1
000c46 30a0      	CPI  R26,LOW(0x0)
000c47 f011      	BREQ _0x160
          _0x15E:
000c48 fe25      	SBRS R2,5
000c49 c001      	RJMP _0x161
          _0x160:
000c4a c004      	RJMP _0x15D
          _0x161:
         ;    1530   		{
         ;    1531    	     n_but=1;
000c4b 9468      	SET
000c4c f826      	BLD  R2,6
         ;    1532           but=but_s;
000c4d 9080 03a5 	LDS  R8,_but_s_G1
         ;    1533           }
         ;    1534    	if (but1_cnt>=but_onL_temp)
          _0x15D:
000c4f 940e 150b 	CALL SUBOPT_0x4C
000c51 f020      	BRLO _0x162
         ;    1535   		{
         ;    1536    	     n_but=1;
000c52 9468      	SET
000c53 f826      	BLD  R2,6
         ;    1537           but=but_s&0b11111110;
000c54 940e 1511 	CALL SUBOPT_0x4D
         ;    1538           }
         ;    1539     	l_but=0;
          _0x162:
000c56 94e8      	CLT
000c57 f825      	BLD  R2,5
         ;    1540    	but_onL_temp=but_onL;
000c58 e1e4      	LDI  R30,LOW(20)
000c59 93e0 03a8 	STS  _but_onL_temp_G1,R30
         ;    1541     	but0_cnt=0;
000c5b e0e0      	LDI  R30,LOW(0)
000c5c 93e0 03a6 	STS  _but0_cnt_G1,R30
         ;    1542   	but1_cnt=0;          
000c5e 93e0 03a7 	STS  _but1_cnt_G1,R30
         ;    1543      goto but_drv_out;
000c60 c02e      	RJMP _0x163
         ;    1544   	}  
         ;    1545   	
         ;    1546 if(but_n==but_s)
          _0x15A:
000c61 940e 1505 	CALL SUBOPT_0x4B
000c63 f559      	BRNE _0x164
         ;    1547  	{
         ;    1548   	but0_cnt++;
000c64 91e0 03a6 	LDS  R30,_but0_cnt_G1
000c66 5fef      	SUBI R30,-LOW(1)
000c67 93e0 03a6 	STS  _but0_cnt_G1,R30
         ;    1549   	if(but0_cnt>=but_on)
000c69 91a0 03a6 	LDS  R26,_but0_cnt_G1
000c6b 30a5      	CPI  R26,LOW(0x5)
000c6c f110      	BRLO _0x165
         ;    1550   		{
         ;    1551    		but0_cnt=0;
000c6d e0e0      	LDI  R30,LOW(0)
000c6e 93e0 03a6 	STS  _but0_cnt_G1,R30
         ;    1552    		but1_cnt++;
000c70 91e0 03a7 	LDS  R30,_but1_cnt_G1
000c72 5fef      	SUBI R30,-LOW(1)
000c73 93e0 03a7 	STS  _but1_cnt_G1,R30
         ;    1553    		if(but1_cnt>=but_onL_temp)
000c75 940e 150b 	CALL SUBOPT_0x4C
000c77 f0b8      	BRLO _0x166
         ;    1554    			{              
         ;    1555     			but=but_s&0b11111110;
000c78 940e 1511 	CALL SUBOPT_0x4D
         ;    1556     			but1_cnt=0;
000c7a e0e0      	LDI  R30,LOW(0)
000c7b 93e0 03a7 	STS  _but1_cnt_G1,R30
         ;    1557     			n_but=1;
000c7d 9468      	SET
000c7e f826      	BLD  R2,6
         ;    1558     			l_but=1;
000c7f 9468      	SET
000c80 f825      	BLD  R2,5
         ;    1559 			if(speed)
000c81 fe27      	SBRS R2,7
000c82 c00c      	RJMP _0x167
         ;    1560 				{
         ;    1561     				but_onL_temp=but_onL_temp>>1;
000c83 91e0 03a8 	LDS  R30,_but_onL_temp_G1
000c85 95e6      	LSR  R30
000c86 93e0 03a8 	STS  _but_onL_temp_G1,R30
         ;    1562         			if(but_onL_temp<=2) but_onL_temp=2;
000c88 91a0 03a8 	LDS  R26,_but_onL_temp_G1
000c8a e0e2      	LDI  R30,LOW(2)
000c8b 17ea      	CP   R30,R26
000c8c f010      	BRLO _0x168
000c8d 93e0 03a8 	STS  _but_onL_temp_G1,R30
         ;    1563 				}    
          _0x168:
         ;    1564    			}
          _0x167:
         ;    1565   		} 
          _0x166:
         ;    1566  	}
          _0x165:
         ;    1567 but_drv_out:
          _0x164:
          _0x163:
         ;    1568 but_s=but_n;
000c8f 91e0 03a4 	LDS  R30,_but_n_G1
000c91 93e0 03a5 	STS  _but_s_G1,R30
         ;    1569 but_port|=(but_mask^0xff);
000c93 940e 1501 	CALL SUBOPT_0x4A
         ;    1570 but_dir&=but_mask;
000c95 b3e7      	IN   R30,0x17
000c96 70e7      	ANDI R30,LOW(0x7)
000c97 bbe7      	OUT  0x17,R30
         ;    1571 } 
000c98 9508      	RET
         ;    1572 
         ;    1573 //-----------------------------------------------
         ;    1574 void but_an(void)
         ;    1575 {
          _but_an:
         ;    1576 char temp;
         ;    1577 int tempU;
         ;    1578 
         ;    1579 if (!n_but) goto but_an_end;
000c99 940e 16e3 	CALL __SAVELOCR3
         ;	temp -> R16
         ;	tempU -> R17,R18
000c9b fe26      	SBRS R2,6
000c9c c3e6      	RJMP _0x16A
         ;    1580    
         ;    1581 if (ind==iMn)
000c9d 2c06      	MOV  R0,R6
000c9e 2807      	OR   R0,R7
000c9f f479      	BRNE _0x16B
         ;    1582 	{
         ;    1583 	if(but==butD)
000ca0 edef      	LDI  R30,LOW(223)
000ca1 15e8      	CP   R30,R8
000ca2 f421      	BRNE _0x16C
         ;    1584 		{
         ;    1585 		ind=iMn_;
000ca3 940e 1516 	CALL SUBOPT_0x4E
         ;    1586 		sub_ind=0;
         ;    1587 		index_set=0;
000ca5 24dd      	CLR  R13
         ;    1588 		}
         ;    1589 		
         ;    1590 	else if(but==butUD)
000ca6 c007      	RJMP _0x16D
          _0x16C:
000ca7 ecef      	LDI  R30,LOW(207)
000ca8 15e8      	CP   R30,R8
000ca9 f421      	BRNE _0x16E
         ;    1591 		{
         ;    1592 		ind=iDeb;
000caa e1e8      	LDI  R30,LOW(24)
000cab e0f0      	LDI  R31,HIGH(24)
000cac   +  	__PUTW1R 6,7
         ;    1593 		}		
         ;    1594 		
         ;    1595 	}   
          _0x16E:
          _0x16D:
         ;    1596 
         ;    1597 else if (ind==iMn_)
000cae c3d4      	RJMP _0x16F
          _0x16B:
000caf e0e1      	LDI  R30,LOW(1)
000cb0 e0f0      	LDI  R31,HIGH(1)
000cb1 15e6      	CP   R30,R6
000cb2 05f7      	CPC  R31,R7
000cb3 f011      	BREQ PC+3
000cb4 940c 0cfd 	JMP _0x170
         ;    1598 	{
         ;    1599 	if(but==butU)
000cb6 eeef      	LDI  R30,LOW(239)
000cb7 15e8      	CP   R30,R8
000cb8 f421      	BRNE _0x171
         ;    1600 		{
         ;    1601 		sub_ind--;
000cb9 94ba      	DEC  R11
         ;    1602 		gran_char(&sub_ind,0,4);
000cba 940e 151c 	CALL SUBOPT_0x4F
         ;    1603 		}
         ;    1604 
         ;    1605 	else if(but==butD)
000cbc c03f      	RJMP _0x172
          _0x171:
000cbd edef      	LDI  R30,LOW(223)
000cbe 15e8      	CP   R30,R8
000cbf f421      	BRNE _0x173
         ;    1606 		{
         ;    1607 		sub_ind++;
000cc0 94b3      	INC  R11
         ;    1608 		gran_char(&sub_ind,0,4);
000cc1 940e 151c 	CALL SUBOPT_0x4F
         ;    1609 		}
         ;    1610 
         ;    1611 	else if(but==butL)
000cc3 c038      	RJMP _0x174
          _0x173:
000cc4 ebef      	LDI  R30,LOW(191)
000cc5 15e8      	CP   R30,R8
000cc6 f421      	BRNE _0x175
         ;    1612 		{
         ;    1613 		ind=iMn;
000cc7 2466      	CLR  R6
000cc8 2477      	CLR  R7
         ;    1614 		sub_ind=0;
000cc9 24bb      	CLR  R11
         ;    1615 		}
         ;    1616 				
         ;    1617 	else if(but==butE_)
000cca c031      	RJMP _0x176
          _0x175:
000ccb efe6      	LDI  R30,LOW(246)
000ccc 15e8      	CP   R30,R8
000ccd f4f9      	BRNE _0x177
         ;    1618 		{
         ;    1619 		if(sub_ind<4)
000cce e0e4      	LDI  R30,LOW(4)
000ccf 16be      	CP   R11,R30
000cd0 f4dc      	BRGE _0x178
         ;    1620 			{
         ;    1621 			if(wrk_state[sub_ind]==wsOFF)
000cd1 2deb      	MOV  R30,R11
000cd2 e1a9      	LDI  R26,LOW(_wrk_state)
000cd3 e0b0      	LDI  R27,HIGH(_wrk_state)
000cd4 940e 1526 	CALL SUBOPT_0x50
000cd6 940e 16b0 	CALL __EEPROMRDW
000cd8 9730      	SBIW R30,0
000cd9 f479      	BRNE _0x179
         ;    1622 				{
         ;    1623 				if(!nd[sub_ind])start_process(sub_ind);
000cda 2deb      	MOV  R30,R11
000cdb e0f0      	LDI  R31,0
000cdc 5bee      	SUBI R30,LOW(-_nd)
000cdd 4ffc      	SBCI R31,HIGH(-_nd)
000cde 81e0      	LD   R30,Z
000cdf 30e0      	CPI  R30,0
000ce0 f421      	BRNE _0x17A
000ce1 92ba      	ST   -Y,R11
000ce2 940e 0248 	CALL _start_process
         ;    1624 				else cnt_ind_nd=20;
000ce4 c003      	RJMP _0x17B
          _0x17A:
000ce5 e1e4      	LDI  R30,LOW(20)
000ce6 93e0 03a3 	STS  _cnt_ind_nd,R30
          _0x17B:
         ;    1625 				}
         ;    1626 			else stop_process(sub_ind);
000ce8 c003      	RJMP _0x17C
          _0x179:
000ce9 92ba      	ST   -Y,R11
000cea 940e 0287 	CALL _stop_process
          _0x17C:
         ;    1627 			}
         ;    1628 		} 
          _0x178:
         ;    1629 	else if(but==butE)
000cec c00f      	RJMP _0x17D
          _0x177:
000ced efe7      	LDI  R30,LOW(247)
000cee 15e8      	CP   R30,R8
000cef f461      	BRNE _0x17E
         ;    1630 		{
         ;    1631 		if(sub_ind<4)
000cf0 e0e4      	LDI  R30,LOW(4)
000cf1 16be      	CP   R11,R30
000cf2 f434      	BRGE _0x17F
         ;    1632 			{
         ;    1633 			ind=iCh;
000cf3 e0e2      	LDI  R30,LOW(2)
000cf4 e0f0      	LDI  R31,HIGH(2)
000cf5   +  	__PUTW1R 6,7
         ;    1634 			sub_ind1=sub_ind;
000cf7 2ccb      	MOV  R12,R11
         ;    1635 			sub_ind=0;
000cf8 c002      	RJMP _0x26E
         ;    1636 			}         
         ;    1637 		else
          _0x17F:
         ;    1638 			{
         ;    1639 			ind=iMn;
000cf9 2466      	CLR  R6
000cfa 2477      	CLR  R7
         ;    1640 			sub_ind=0;
          _0x26E:
000cfb 24bb      	CLR  R11
         ;    1641 			}	
         ;    1642 		}		
         ;    1643 
         ;    1644 	}
          _0x17E:
          _0x17D:
          _0x176:
          _0x174:
          _0x172:
         ;    1645 else if(ind==iDeb)
000cfc c386      	RJMP _0x181
          _0x170:
000cfd e1e8      	LDI  R30,LOW(24)
000cfe e0f0      	LDI  R31,HIGH(24)
000cff 15e6      	CP   R30,R6
000d00 05f7      	CPC  R31,R7
000d01 f431      	BRNE _0x182
         ;    1646 	{
         ;    1647 	if(but==butUD)
000d02 ecef      	LDI  R30,LOW(207)
000d03 15e8      	CP   R30,R8
000d04 f411      	BRNE _0x183
         ;    1648 		{
         ;    1649 		ind=iMn;
000d05 2466      	CLR  R6
000d06 2477      	CLR  R7
         ;    1650 		}
         ;    1651 	} 
          _0x183:
         ;    1652 
         ;    1653 else if(ind==iCh)
000d07 c37b      	RJMP _0x184
          _0x182:
000d08 e0e2      	LDI  R30,LOW(2)
000d09 e0f0      	LDI  R31,HIGH(2)
000d0a 15e6      	CP   R30,R6
000d0b 05f7      	CPC  R31,R7
000d0c f011      	BREQ PC+3
000d0d 940c 0e21 	JMP _0x185
         ;    1654 	{
         ;    1655 	if(but==butU)
000d0f eeef      	LDI  R30,LOW(239)
000d10 15e8      	CP   R30,R8
000d11 f441      	BRNE _0x186
         ;    1656 		{
         ;    1657 		sub_ind--;
000d12 94ba      	DEC  R11
         ;    1658 		if(sub_ind==1)sub_ind=0;
000d13 e0e1      	LDI  R30,LOW(1)
000d14 15eb      	CP   R30,R11
000d15 f409      	BRNE _0x187
000d16 24bb      	CLR  R11
         ;    1659 		gran_char(&sub_ind,0,7);
          _0x187:
000d17 940e 152c 	CALL SUBOPT_0x51
         ;    1660 		}
         ;    1661 
         ;    1662 	else if(but==butD)
000d19 c106      	RJMP _0x188
          _0x186:
000d1a edef      	LDI  R30,LOW(223)
000d1b 15e8      	CP   R30,R8
000d1c f449      	BRNE _0x189
         ;    1663 		{
         ;    1664 		sub_ind++;
000d1d 94b3      	INC  R11
         ;    1665 		if(sub_ind==1)sub_ind=2;
000d1e e0e1      	LDI  R30,LOW(1)
000d1f 15eb      	CP   R30,R11
000d20 f411      	BRNE _0x18A
000d21 e0e2      	LDI  R30,LOW(2)
000d22 2ebe      	MOV  R11,R30
         ;    1666 		gran_char(&sub_ind,0,7);
          _0x18A:
000d23 940e 152c 	CALL SUBOPT_0x51
         ;    1667 		}
         ;    1668 
         ;    1669 	else if(sub_ind==2)
000d25 c0fa      	RJMP _0x18B
          _0x189:
000d26 e0e2      	LDI  R30,LOW(2)
000d27 15eb      	CP   R30,R11
000d28 f011      	BREQ PC+3
000d29 940c 0d75 	JMP _0x18C
         ;    1670 		{
         ;    1671 		if(but==butR)
000d2b e7ef      	LDI  R30,LOW(127)
000d2c 15e8      	CP   R30,R8
000d2d f469      	BRNE _0x18D
         ;    1672 			{
         ;    1673 			speed=1;
000d2e 9468      	SET
000d2f f827      	BLD  R2,7
         ;    1674 			t_ust[sub_ind1]++;
000d30 940e 14b8 	CALL SUBOPT_0x41
000d32 940e 1536 	CALL SUBOPT_0x52
         ;    1675 			gran_ee(&t_ust[sub_ind1],30,140);
000d34 e2a9      	LDI  R26,LOW(_t_ust)
000d35 e0b0      	LDI  R27,HIGH(_t_ust)
000d36 940e 12ff 	CALL SUBOPT_0x17
000d38 940e 153c 	CALL SUBOPT_0x53
         ;    1676 			} 
         ;    1677 		else if(but==butR_)
000d3a c039      	RJMP _0x18E
          _0x18D:
000d3b e7ee      	LDI  R30,LOW(126)
000d3c 15e8      	CP   R30,R8
000d3d f499      	BRNE _0x18F
         ;    1678 			{
         ;    1679 			speed=1;
000d3e 9468      	SET
000d3f f827      	BLD  R2,7
         ;    1680 			t_ust[sub_ind1]+=2;
000d40 940e 1548 	CALL SUBOPT_0x54
000d42 93ff      	PUSH R31
000d43 93ef      	PUSH R30
000d44 01df      	MOVW R26,R30
000d45 940e 16b0 	CALL __EEPROMRDW
000d47 9632      	ADIW R30,2
000d48 91af      	POP  R26
000d49 91bf      	POP  R27
000d4a 940e 16c0 	CALL __EEPROMWRW
         ;    1681 			gran_ee(&t_ust[sub_ind1],30,140);
000d4c 940e 1548 	CALL SUBOPT_0x54
000d4e 940e 153c 	CALL SUBOPT_0x53
         ;    1682 			}			
         ;    1683 		else if(but==butL)
000d50 c023      	RJMP _0x190
          _0x18F:
000d51 ebef      	LDI  R30,LOW(191)
000d52 15e8      	CP   R30,R8
000d53 f459      	BRNE _0x191
         ;    1684 			{
         ;    1685 			speed=1;
000d54 9468      	SET
000d55 f827      	BLD  R2,7
         ;    1686 			t_ust[sub_ind1]--;
000d56 940e 14b8 	CALL SUBOPT_0x41
000d58 940e 154c 	CALL SUBOPT_0x55
         ;    1687 			gran_ee(&t_ust[sub_ind1],30,140);
000d5a 940e 1548 	CALL SUBOPT_0x54
000d5c 940e 153c 	CALL SUBOPT_0x53
         ;    1688 			} 
         ;    1689 		else if(but==butL_)
000d5e c015      	RJMP _0x192
          _0x191:
000d5f ebee      	LDI  R30,LOW(190)
000d60 15e8      	CP   R30,R8
000d61 f491      	BRNE _0x193
         ;    1690 			{
         ;    1691 			speed=1;
000d62 9468      	SET
000d63 f827      	BLD  R2,7
         ;    1692 			t_ust[sub_ind1]-=2;
000d64 940e 1548 	CALL SUBOPT_0x54
000d66 93ff      	PUSH R31
000d67 93ef      	PUSH R30
000d68 01df      	MOVW R26,R30
000d69 940e 16b0 	CALL __EEPROMRDW
000d6b 9732      	SBIW R30,2
000d6c 91af      	POP  R26
000d6d 91bf      	POP  R27
000d6e 940e 16c0 	CALL __EEPROMWRW
         ;    1693 			gran_ee(&t_ust[sub_ind1],30,140);
000d70 940e 1548 	CALL SUBOPT_0x54
000d72 940e 153c 	CALL SUBOPT_0x53
         ;    1694 			}			
         ;    1695 		}
          _0x193:
          _0x192:
          _0x190:
          _0x18E:
         ;    1696 		
         ;    1697 	else if(sub_ind==3)
000d74 c0ab      	RJMP _0x194
          _0x18C:
000d75 e0e3      	LDI  R30,LOW(3)
000d76 15eb      	CP   R30,R11
000d77 f011      	BREQ PC+3
000d78 940c 0dda 	JMP _0x195
         ;    1698 		{
         ;    1699 		if(but==butR)
000d7a e7ef      	LDI  R30,LOW(127)
000d7b 15e8      	CP   R30,R8
000d7c f481      	BRNE _0x196
         ;    1700 			{
         ;    1701 			speed=1;
000d7d 9468      	SET
000d7e f827      	BLD  R2,7
         ;    1702 			ee_wrk_time[sub_ind1]++;
000d7f 2dec      	MOV  R30,R12
000d80 940e 1287 	CALL SUBOPT_0x7
000d82 940e 1536 	CALL SUBOPT_0x52
         ;    1703 			gran_ee(&ee_wrk_time[sub_ind1],1,720);
000d84 e0a9      	LDI  R26,LOW(_ee_wrk_time)
000d85 e0b0      	LDI  R27,HIGH(_ee_wrk_time)
000d86 940e 12ff 	CALL SUBOPT_0x17
000d88 940e 1291 	CALL SUBOPT_0x8
000d8a 940e 01e9 	CALL _gran_ee
         ;    1704 			} 
         ;    1705 		else if(but==butR_)
000d8c c04c      	RJMP _0x197
          _0x196:
000d8d e7ee      	LDI  R30,LOW(126)
000d8e 15e8      	CP   R30,R8
000d8f f4d9      	BRNE _0x198
         ;    1706 			{
         ;    1707 			speed=1;
000d90 9468      	SET
000d91 f827      	BLD  R2,7
         ;    1708 			ee_wrk_time[sub_ind1]=((ee_wrk_time[sub_ind1]/10)+1)*10;
000d92 940e 1551 	CALL SUBOPT_0x56
000d94 93ff      	PUSH R31
000d95 93ef      	PUSH R30
000d96 2dec      	MOV  R30,R12
000d97 940e 1287 	CALL SUBOPT_0x7
000d99 940e 1555 	CALL SUBOPT_0x57
000d9b 9631      	ADIW R30,1
000d9c e0aa      	LDI  R26,LOW(10)
000d9d e0b0      	LDI  R27,HIGH(10)
000d9e 940e 161c 	CALL __MULW12
000da0 91af      	POP  R26
000da1 91bf      	POP  R27
000da2 940e 16c0 	CALL __EEPROMWRW
         ;    1709 			gran_ee(&ee_wrk_time[sub_ind1],1,720);
000da4 940e 1551 	CALL SUBOPT_0x56
000da6 940e 1291 	CALL SUBOPT_0x8
000da8 940e 01e9 	CALL _gran_ee
         ;    1710 			}			
         ;    1711 		else if(but==butL)
000daa c02e      	RJMP _0x199
          _0x198:
000dab ebef      	LDI  R30,LOW(191)
000dac 15e8      	CP   R30,R8
000dad f471      	BRNE _0x19A
         ;    1712 			{
         ;    1713 			speed=1;
000dae 9468      	SET
000daf f827      	BLD  R2,7
         ;    1714 			ee_wrk_time[sub_ind1]--;
000db0 2dec      	MOV  R30,R12
000db1 940e 1287 	CALL SUBOPT_0x7
000db3 940e 154c 	CALL SUBOPT_0x55
         ;    1715 			gran_ee(&ee_wrk_time[sub_ind1],1,720);
000db5 940e 1551 	CALL SUBOPT_0x56
000db7 940e 1291 	CALL SUBOPT_0x8
000db9 940e 01e9 	CALL _gran_ee
         ;    1716 			} 
         ;    1717 		else if(but==butL_)
000dbb c01d      	RJMP _0x19B
          _0x19A:
000dbc ebee      	LDI  R30,LOW(190)
000dbd 15e8      	CP   R30,R8
000dbe f4d1      	BRNE _0x19C
         ;    1718 			{
         ;    1719 			speed=1;
000dbf 9468      	SET
000dc0 f827      	BLD  R2,7
         ;    1720 			ee_wrk_time[sub_ind1]=((ee_wrk_time[sub_ind1]/10)-1)*10;
000dc1 940e 1551 	CALL SUBOPT_0x56
000dc3 93ff      	PUSH R31
000dc4 93ef      	PUSH R30
000dc5 2dec      	MOV  R30,R12
000dc6 940e 1287 	CALL SUBOPT_0x7
000dc8 940e 1555 	CALL SUBOPT_0x57
000dca 9731      	SBIW R30,1
000dcb e0aa      	LDI  R26,LOW(10)
000dcc e0b0      	LDI  R27,HIGH(10)
000dcd 940e 161c 	CALL __MULW12
000dcf 91af      	POP  R26
000dd0 91bf      	POP  R27
000dd1 940e 16c0 	CALL __EEPROMWRW
         ;    1721 			gran_ee(&ee_wrk_time[sub_ind1],1,720);
000dd3 940e 1551 	CALL SUBOPT_0x56
000dd5 940e 1291 	CALL SUBOPT_0x8
000dd7 940e 01e9 	CALL _gran_ee
         ;    1722 			}			
         ;    1723 		}
          _0x19C:
          _0x19B:
          _0x199:
          _0x197:
         ;    1724 	else if(sub_ind==4)
000dd9 c046      	RJMP _0x19D
          _0x195:
000dda e0e4      	LDI  R30,LOW(4)
000ddb 15eb      	CP   R30,R11
000ddc f4d1      	BRNE _0x19E
         ;    1725 		{
         ;    1726 		if((but==butR)||(but==butR_))
000ddd e7ef      	LDI  R30,LOW(127)
000dde 15e8      	CP   R30,R8
000ddf f019      	BREQ _0x1A0
000de0 e7ee      	LDI  R30,LOW(126)
000de1 15e8      	CP   R30,R8
000de2 f439      	BRNE _0x19F
          _0x1A0:
         ;    1727 			{
         ;    1728 			ee_time_mode[sub_ind1]=1;
000de3 940e 155b 	CALL SUBOPT_0x58
000de5 e0e1      	LDI  R30,LOW(1)
000de6 e0f0      	LDI  R31,HIGH(1)
000de7 940e 16c0 	CALL __EEPROMWRW
         ;    1729 			} 
         ;    1730 		else if((but==butL)||(but==butL_))
000de9 c00c      	RJMP _0x1A2
          _0x19F:
000dea ebef      	LDI  R30,LOW(191)
000deb 15e8      	CP   R30,R8
000dec f019      	BREQ _0x1A4
000ded ebee      	LDI  R30,LOW(190)
000dee 15e8      	CP   R30,R8
000def f431      	BRNE _0x1A3
          _0x1A4:
         ;    1731 			{
         ;    1732 			ee_time_mode[sub_ind1]=0;
000df0 940e 155b 	CALL SUBOPT_0x58
000df2 e0e0      	LDI  R30,LOW(0)
000df3 e0f0      	LDI  R31,HIGH(0)
000df4 940e 16c0 	CALL __EEPROMWRW
         ;    1733 			} 		
         ;    1734 		}  
          _0x1A3:
          _0x1A2:
         ;    1735 		
         ;    1736 	else if(sub_ind==5)
000df6 c029      	RJMP _0x1A6
          _0x19E:
000df7 e0e5      	LDI  R30,LOW(5)
000df8 15eb      	CP   R30,R11
000df9 f4a9      	BRNE _0x1A7
         ;    1737 		{
         ;    1738 		if(but==butE_)
000dfa efe6      	LDI  R30,LOW(246)
000dfb 15e8      	CP   R30,R8
000dfc f489      	BRNE _0x1A8
         ;    1739 			{
         ;    1740 			if(wrk_state[sub_ind1]==wsON)stop_process(sub_ind1); 
000dfd 940e 14a6 	CALL SUBOPT_0x3F
000dff f421      	BRNE _0x1A9
000e00 92ca      	ST   -Y,R12
000e01 940e 0287 	CALL _stop_process
         ;    1741 			else 
000e03 c00a      	RJMP _0x1AA
          _0x1A9:
         ;    1742 				{
         ;    1743 				if(!nd[sub_ind1])start_process(sub_ind1);
000e04 940e 14e8 	CALL SUBOPT_0x46
000e06 f421      	BRNE _0x1AB
000e07 92ca      	ST   -Y,R12
000e08 940e 0248 	CALL _start_process
         ;    1744 				else cnt_ind_nd=20;
000e0a c003      	RJMP _0x1AC
          _0x1AB:
000e0b e1e4      	LDI  R30,LOW(20)
000e0c 93e0 03a3 	STS  _cnt_ind_nd,R30
          _0x1AC:
         ;    1745 				}
          _0x1AA:
         ;    1746                }
         ;    1747           }
          _0x1A8:
         ;    1748 	else if(sub_ind==6)
000e0e c011      	RJMP _0x1AD
          _0x1A7:
000e0f e0e6      	LDI  R30,LOW(6)
000e10 15eb      	CP   R30,R11
000e11 f431      	BRNE _0x1AE
         ;    1749 		{
         ;    1750 		if(but==butE)
000e12 efe7      	LDI  R30,LOW(247)
000e13 15e8      	CP   R30,R8
000e14 f411      	BRNE _0x1AF
         ;    1751 			{
         ;    1752 			ind=iMn_;
000e15 940e 1516 	CALL SUBOPT_0x4E
         ;    1753 			sub_ind=0;
         ;    1754 			} 		
         ;    1755 		}		
          _0x1AF:
         ;    1756 					
         ;    1757 	else if(sub_ind==7)
000e17 c008      	RJMP _0x1B0
          _0x1AE:
000e18 e0e7      	LDI  R30,LOW(7)
000e19 15eb      	CP   R30,R11
000e1a f429      	BRNE _0x1B1
         ;    1758 		{
         ;    1759 		if(but==butE_)
000e1b efe6      	LDI  R30,LOW(246)
000e1c 15e8      	CP   R30,R8
000e1d f411      	BRNE _0x1B2
         ;    1760 			{
         ;    1761 			ind=iK;
000e1e 940e 155f 	CALL SUBOPT_0x59
         ;    1762 			sub_ind=0;
         ;    1763 			} 		
         ;    1764 		}												
          _0x1B2:
         ;    1765 	}
          _0x1B1:
          _0x1B0:
          _0x1AD:
          _0x1A6:
          _0x19D:
          _0x194:
          _0x18B:
          _0x188:
         ;    1766 else if(ind==iK)
000e20 c262      	RJMP _0x1B3
          _0x185:
000e21 e0ea      	LDI  R30,LOW(10)
000e22 e0f0      	LDI  R31,HIGH(10)
000e23 15e6      	CP   R30,R6
000e24 05f7      	CPC  R31,R7
000e25 f011      	BREQ PC+3
000e26 940c 0e92 	JMP _0x1B4
         ;    1767 	{ 
         ;    1768 	if(but==butU)
000e28 eeef      	LDI  R30,LOW(239)
000e29 15e8      	CP   R30,R8
000e2a f411      	BRNE _0x1B5
         ;    1769 		{
         ;    1770 		sub_ind=0;
000e2b 24bb      	CLR  R11
         ;    1771 		}         
         ;    1772 	else if(but==butD)
000e2c c064      	RJMP _0x1B6
          _0x1B5:
000e2d edef      	LDI  R30,LOW(223)
000e2e 15e8      	CP   R30,R8
000e2f f419      	BRNE _0x1B7
         ;    1773 		{
         ;    1774 		sub_ind=1;
000e30 e0e1      	LDI  R30,LOW(1)
000e31 2ebe      	MOV  R11,R30
         ;    1775 		} 
         ;    1776 	else if(sub_ind==0)
000e32 c05e      	RJMP _0x1B8
          _0x1B7:
000e33 20bb      	TST  R11
000e34 f011      	BREQ PC+3
000e35 940c 0e85 	JMP _0x1B9
         ;    1777 		{              
         ;    1778 		if(but==butR)
000e37 e7ef      	LDI  R30,LOW(127)
000e38 15e8      	CP   R30,R8
000e39 f479      	BRNE _0x1BA
         ;    1779 			{
         ;    1780 			speed=1;
000e3a 9468      	SET
000e3b f827      	BLD  R2,7
         ;    1781 			K_t[sub_ind1]++;
000e3c 940e 1565 	CALL SUBOPT_0x5A
000e3e 940e 16b0 	CALL __EEPROMRDW
000e40 940e 1536 	CALL SUBOPT_0x52
         ;    1782 			gran_ee(&K_t[sub_ind1],-1000,1000);
000e42 e0a1      	LDI  R26,LOW(_K_t)
000e43 e0b0      	LDI  R27,HIGH(_K_t)
000e44 940e 12ff 	CALL SUBOPT_0x17
000e46 940e 1569 	CALL SUBOPT_0x5B
         ;    1783 			} 
         ;    1784 		else if(but==butR_)
000e48 c03b      	RJMP _0x1BB
          _0x1BA:
000e49 e7ee      	LDI  R30,LOW(126)
000e4a 15e8      	CP   R30,R8
000e4b f499      	BRNE _0x1BC
         ;    1785 			{
         ;    1786 			speed=1;
000e4c 9468      	SET
000e4d f827      	BLD  R2,7
         ;    1787 			K_t[sub_ind1]+=10;
000e4e 940e 1575 	CALL SUBOPT_0x5C
000e50 93ff      	PUSH R31
000e51 93ef      	PUSH R30
000e52 01df      	MOVW R26,R30
000e53 940e 16b0 	CALL __EEPROMRDW
000e55 963a      	ADIW R30,10
000e56 91af      	POP  R26
000e57 91bf      	POP  R27
000e58 940e 16c0 	CALL __EEPROMWRW
         ;    1788 			gran_ee(&K_t[sub_ind1],-1000,1000);
000e5a 940e 1575 	CALL SUBOPT_0x5C
000e5c 940e 1569 	CALL SUBOPT_0x5B
         ;    1789 			}
         ;    1790 		else if(but==butL)
000e5e c025      	RJMP _0x1BD
          _0x1BC:
000e5f ebef      	LDI  R30,LOW(191)
000e60 15e8      	CP   R30,R8
000e61 f469      	BRNE _0x1BE
         ;    1791 			{ 
         ;    1792 			speed=1;
000e62 9468      	SET
000e63 f827      	BLD  R2,7
         ;    1793 			K_t[sub_ind1]--;
000e64 940e 1565 	CALL SUBOPT_0x5A
000e66 940e 16b0 	CALL __EEPROMRDW
000e68 940e 154c 	CALL SUBOPT_0x55
         ;    1794 			gran_ee(&K_t[sub_ind1],-1000,1000);
000e6a 940e 1575 	CALL SUBOPT_0x5C
000e6c 940e 1569 	CALL SUBOPT_0x5B
         ;    1795 			}
         ;    1796 		else if(but==butL_)
000e6e c015      	RJMP _0x1BF
          _0x1BE:
000e6f ebee      	LDI  R30,LOW(190)
000e70 15e8      	CP   R30,R8
000e71 f491      	BRNE _0x1C0
         ;    1797 			{
         ;    1798 			speed=1;
000e72 9468      	SET
000e73 f827      	BLD  R2,7
         ;    1799 			K_t[sub_ind1]-=10;
000e74 940e 1575 	CALL SUBOPT_0x5C
000e76 93ff      	PUSH R31
000e77 93ef      	PUSH R30
000e78 01df      	MOVW R26,R30
000e79 940e 16b0 	CALL __EEPROMRDW
000e7b 973a      	SBIW R30,10
000e7c 91af      	POP  R26
000e7d 91bf      	POP  R27
000e7e 940e 16c0 	CALL __EEPROMWRW
         ;    1800 			gran_ee(&K_t[sub_ind1],-1000,1000);
000e80 940e 1575 	CALL SUBOPT_0x5C
000e82 940e 1569 	CALL SUBOPT_0x5B
         ;    1801 			}									
         ;    1802 		}
          _0x1C0:
          _0x1BF:
          _0x1BD:
          _0x1BB:
         ;    1803 	else if(sub_ind==1)
000e84 c00c      	RJMP _0x1C1
          _0x1B9:
000e85 e0e1      	LDI  R30,LOW(1)
000e86 15eb      	CP   R30,R11
000e87 f449      	BRNE _0x1C2
         ;    1804 		{
         ;    1805 		if(but==butE)
000e88 efe7      	LDI  R30,LOW(247)
000e89 15e8      	CP   R30,R8
000e8a f431      	BRNE _0x1C3
         ;    1806 			{   
         ;    1807 			ind=iCh;
000e8b e0e2      	LDI  R30,LOW(2)
000e8c e0f0      	LDI  R31,HIGH(2)
000e8d   +  	__PUTW1R 6,7
         ;    1808 			sub_ind=6;
000e8f e0e6      	LDI  R30,LOW(6)
000e90 2ebe      	MOV  R11,R30
         ;    1809 			}
         ;    1810 		}		  			
          _0x1C3:
         ;    1811 	}	
          _0x1C2:
          _0x1C1:
          _0x1B8:
          _0x1B6:
         ;    1812 		
         ;    1813 else if(ind==iSet)
000e91 c1f1      	RJMP _0x1C4
          _0x1B4:
000e92 e0e3      	LDI  R30,LOW(3)
000e93 e0f0      	LDI  R31,HIGH(3)
000e94 15e6      	CP   R30,R6
000e95 05f7      	CPC  R31,R7
000e96 f011      	BREQ PC+3
000e97 940c 0fa0 	JMP _0x1C5
         ;    1814 	{
         ;    1815 	if(sub_ind==0)
000e99 20bb      	TST  R11
000e9a f409      	BRNE _0x1C6
         ;    1816 		{
         ;    1817 	//	if(but==butR)ee_mode=emAVT;
         ;    1818     //		else if(but==butL)ee_mode=emMNL;
         ;    1819 	//	else if(but==butE)
         ;    1820 	 //		{
         ;    1821 	 //		if(ee_mode==emMNL)ee_mode=emAVT;
         ;    1822 	 //		else ee_mode=emMNL;
         ;    1823 	 //		}
         ;    1824 	 //	else if(but==butD)
         ;    1825 	 //		{
         ;    1826 	 //		sub_ind=1;
         ;    1827 	 //		}
         ;    1828 		}
         ;    1829 	else if(sub_ind==1)
000e9b c103      	RJMP _0x1C7
          _0x1C6:
000e9c e0e1      	LDI  R30,LOW(1)
000e9d 15eb      	CP   R30,R11
000e9e f011      	BREQ PC+3
000e9f 940c 0f14 	JMP _0x1C8
         ;    1830 		{
         ;    1831 		if((but==butR)||(but==butR_))
000ea1 e7ef      	LDI  R30,LOW(127)
000ea2 15e8      	CP   R30,R8
000ea3 f019      	BREQ _0x1CA
000ea4 e7ee      	LDI  R30,LOW(126)
000ea5 15e8      	CP   R30,R8
000ea6 f529      	BRNE _0x1C9
          _0x1CA:
         ;    1832 			{
         ;    1833 			speed=1;
000ea7 9468      	SET
000ea8 f827      	BLD  R2,7
         ;    1834 			if(!nakal_cnt)nakal_cnt=300;
000ea9 91e0 0315 	LDS  R30,_nakal_cnt
000eab 91f0 0316 	LDS  R31,_nakal_cnt+1
000ead 9730      	SBIW R30,0
000eae f439      	BRNE _0x1CC
000eaf e2ec      	LDI  R30,LOW(300)
000eb0 e0f1      	LDI  R31,HIGH(300)
000eb1 93e0 0315 	STS  _nakal_cnt,R30
000eb3 93f0 0316 	STS  _nakal_cnt+1,R31
         ;    1835 			else if((nakal_cnt>=200)&&(nakal_cnt<300))
000eb5 c015      	RJMP _0x1CD
          _0x1CC:
000eb6 91a0 0315 	LDS  R26,_nakal_cnt
000eb8 91b0 0316 	LDS  R27,_nakal_cnt+1
000eba 3ca8      	CPI  R26,LOW(0xC8)
000ebb e0e0      	LDI  R30,HIGH(0xC8)
000ebc 07be      	CPC  R27,R30
000ebd f024      	BRLT _0x1CF
000ebe 32ac      	CPI  R26,LOW(0x12C)
000ebf e0e1      	LDI  R30,HIGH(0x12C)
000ec0 07be      	CPC  R27,R30
000ec1 f00c      	BRLT _0x1D0
          _0x1CF:
000ec2 c008      	RJMP _0x1CE
          _0x1D0:
         ;    1836 				{
         ;    1837 				ee_pwm++;
000ec3 e3a1      	LDI  R26,LOW(_ee_pwm)
000ec4 e0b0      	LDI  R27,HIGH(_ee_pwm)
000ec5 940e 16b4 	CALL __EEPROMRDB
000ec7 5fef      	SUBI R30,-LOW(1)
000ec8 940e 16c8 	CALL __EEPROMWRB
000eca 50e1      	SUBI R30,LOW(1)
         ;    1838 				
         ;    1839 				//gran_char_ee(&ee_pwm,5,250);
         ;    1840 				}
         ;    1841 			}
          _0x1CE:
          _0x1CD:
         ;    1842 		else if((but==butL)||(but==butL_))
000ecb c030      	RJMP _0x1D1
          _0x1C9:
000ecc ebef      	LDI  R30,LOW(191)
000ecd 15e8      	CP   R30,R8
000ece f019      	BREQ _0x1D3
000ecf ebee      	LDI  R30,LOW(190)
000ed0 15e8      	CP   R30,R8
000ed1 f529      	BRNE _0x1D2
          _0x1D3:
         ;    1843 			{
         ;    1844 			speed=1;
000ed2 9468      	SET
000ed3 f827      	BLD  R2,7
         ;    1845 			if(!nakal_cnt)nakal_cnt=300;
000ed4 91e0 0315 	LDS  R30,_nakal_cnt
000ed6 91f0 0316 	LDS  R31,_nakal_cnt+1
000ed8 9730      	SBIW R30,0
000ed9 f439      	BRNE _0x1D5
000eda e2ec      	LDI  R30,LOW(300)
000edb e0f1      	LDI  R31,HIGH(300)
000edc 93e0 0315 	STS  _nakal_cnt,R30
000ede 93f0 0316 	STS  _nakal_cnt+1,R31
         ;    1846 			else if((nakal_cnt>=200)&&(nakal_cnt<300))
000ee0 c015      	RJMP _0x1D6
          _0x1D5:
000ee1 91a0 0315 	LDS  R26,_nakal_cnt
000ee3 91b0 0316 	LDS  R27,_nakal_cnt+1
000ee5 3ca8      	CPI  R26,LOW(0xC8)
000ee6 e0e0      	LDI  R30,HIGH(0xC8)
000ee7 07be      	CPC  R27,R30
000ee8 f024      	BRLT _0x1D8
000ee9 32ac      	CPI  R26,LOW(0x12C)
000eea e0e1      	LDI  R30,HIGH(0x12C)
000eeb 07be      	CPC  R27,R30
000eec f00c      	BRLT _0x1D9
          _0x1D8:
000eed c008      	RJMP _0x1D7
          _0x1D9:
         ;    1847 				{
         ;    1848 				ee_pwm--;
000eee e3a1      	LDI  R26,LOW(_ee_pwm)
000eef e0b0      	LDI  R27,HIGH(_ee_pwm)
000ef0 940e 16b4 	CALL __EEPROMRDB
000ef2 50e1      	SUBI R30,LOW(1)
000ef3 940e 16c8 	CALL __EEPROMWRB
000ef5 5fef      	SUBI R30,-LOW(1)
         ;    1849 				//gran_char_ee(&ee_pwm,5,250);
         ;    1850 				}
         ;    1851 			}
          _0x1D7:
          _0x1D6:
         ;    1852 		else if(but==butD)
000ef6 c005      	RJMP _0x1DA
          _0x1D2:
000ef7 edef      	LDI  R30,LOW(223)
000ef8 15e8      	CP   R30,R8
000ef9 f411      	BRNE _0x1DB
         ;    1853 			{
         ;    1854 			sub_ind=2;
000efa e0e2      	LDI  R30,LOW(2)
000efb 2ebe      	MOV  R11,R30
         ;    1855 			}
         ;    1856 		if(ee_pwm>250)ee_pwm=250;
          _0x1DB:
          _0x1DA:
          _0x1D1:
000efc e3a1      	LDI  R26,LOW(_ee_pwm)
000efd e0b0      	LDI  R27,HIGH(_ee_pwm)
000efe 940e 16b4 	CALL __EEPROMRDB
000f00 2fae      	MOV  R26,R30
000f01 efea      	LDI  R30,LOW(250)
000f02 17ea      	CP   R30,R26
000f03 f420      	BRSH _0x1DC
000f04 e3a1      	LDI  R26,LOW(_ee_pwm)
000f05 e0b0      	LDI  R27,HIGH(_ee_pwm)
000f06 940e 16c8 	CALL __EEPROMWRB
         ;    1857 		if(ee_pwm<5)ee_pwm=5;		
          _0x1DC:
000f08 e3a1      	LDI  R26,LOW(_ee_pwm)
000f09 e0b0      	LDI  R27,HIGH(_ee_pwm)
000f0a 940e 16b4 	CALL __EEPROMRDB
000f0c 30e5      	CPI  R30,LOW(0x5)
000f0d f428      	BRSH _0x1DD
000f0e e0e5      	LDI  R30,LOW(5)
000f0f e3a1      	LDI  R26,LOW(_ee_pwm)
000f10 e0b0      	LDI  R27,HIGH(_ee_pwm)
000f11 940e 16c8 	CALL __EEPROMWRB
         ;    1858 		}
          _0x1DD:
         ;    1859 			
         ;    1860 	else if(sub_ind==2)
000f13 c08b      	RJMP _0x1DE
          _0x1C8:
000f14 e0e2      	LDI  R30,LOW(2)
000f15 15eb      	CP   R30,R11
000f16 f4f1      	BRNE _0x1DF
         ;    1861 		{
         ;    1862 		if((but==butR)||(but==butR_))
000f17 e7ef      	LDI  R30,LOW(127)
000f18 15e8      	CP   R30,R8
000f19 f019      	BREQ _0x1E1
000f1a e7ee      	LDI  R30,LOW(126)
000f1b 15e8      	CP   R30,R8
000f1c f419      	BRNE _0x1E0
          _0x1E1:
         ;    1863 			{
         ;    1864 			speed=1;
000f1d 9468      	SET
000f1e f827      	BLD  R2,7
         ;    1865 			//ee_nagrev_time++;
         ;    1866 		//	gran_ee(&ee_nagrev_time,10,1000);
         ;    1867 			}
         ;    1868 		else if((but==butL)||(but==butL_))
000f1f c014      	RJMP _0x1E3
          _0x1E0:
000f20 ebef      	LDI  R30,LOW(191)
000f21 15e8      	CP   R30,R8
000f22 f019      	BREQ _0x1E5
000f23 ebee      	LDI  R30,LOW(190)
000f24 15e8      	CP   R30,R8
000f25 f419      	BRNE _0x1E4
          _0x1E5:
         ;    1869 			{
         ;    1870 			speed=1;
000f26 9468      	SET
000f27 f827      	BLD  R2,7
         ;    1871 			//ee_nagrev_time--;
         ;    1872 			//gran_ee(&ee_nagrev_time,10,1000);
         ;    1873 			}
         ;    1874 		else if(but==butD)
000f28 c00b      	RJMP _0x1E7
          _0x1E4:
000f29 edef      	LDI  R30,LOW(223)
000f2a 15e8      	CP   R30,R8
000f2b f419      	BRNE _0x1E8
         ;    1875 			{
         ;    1876 			sub_ind=3;
000f2c e0e3      	LDI  R30,LOW(3)
000f2d 2ebe      	MOV  R11,R30
         ;    1877 			}
         ;    1878 		else if(but==butU)
000f2e c005      	RJMP _0x1E9
          _0x1E8:
000f2f eeef      	LDI  R30,LOW(239)
000f30 15e8      	CP   R30,R8
000f31 f411      	BRNE _0x1EA
         ;    1879 			{
         ;    1880 			sub_ind=1;
000f32 e0e1      	LDI  R30,LOW(1)
000f33 2ebe      	MOV  R11,R30
         ;    1881 			}					
         ;    1882 		}		
          _0x1EA:
          _0x1E9:
          _0x1E7:
          _0x1E3:
         ;    1883 	else if(sub_ind==3)
000f34 c06a      	RJMP _0x1EB
          _0x1DF:
000f35 e0e3      	LDI  R30,LOW(3)
000f36 15eb      	CP   R30,R11
000f37 f4f1      	BRNE _0x1EC
         ;    1884 		{
         ;    1885 		if((but==butR)||(but==butR_))
000f38 e7ef      	LDI  R30,LOW(127)
000f39 15e8      	CP   R30,R8
000f3a f019      	BREQ _0x1EE
000f3b e7ee      	LDI  R30,LOW(126)
000f3c 15e8      	CP   R30,R8
000f3d f419      	BRNE _0x1ED
          _0x1EE:
         ;    1886 			{
         ;    1887 			speed=1;
000f3e 9468      	SET
000f3f f827      	BLD  R2,7
         ;    1888 			//ee_wrk_time++;
         ;    1889 			//gran_ee(&ee_wrk_time,10,1000);
         ;    1890 			}
         ;    1891 		else if((but==butL)||(but==butL_))
000f40 c014      	RJMP _0x1F0
          _0x1ED:
000f41 ebef      	LDI  R30,LOW(191)
000f42 15e8      	CP   R30,R8
000f43 f019      	BREQ _0x1F2
000f44 ebee      	LDI  R30,LOW(190)
000f45 15e8      	CP   R30,R8
000f46 f419      	BRNE _0x1F1
          _0x1F2:
         ;    1892 			{
         ;    1893 			speed=1;
000f47 9468      	SET
000f48 f827      	BLD  R2,7
         ;    1894 			//ee_wrk_time--;
         ;    1895 			//gran_ee(&ee_wrk_time,10,1000);
         ;    1896 			}
         ;    1897 		else if(but==butD)
000f49 c00b      	RJMP _0x1F4
          _0x1F1:
000f4a edef      	LDI  R30,LOW(223)
000f4b 15e8      	CP   R30,R8
000f4c f419      	BRNE _0x1F5
         ;    1898 			{
         ;    1899 			sub_ind=4;
000f4d e0e4      	LDI  R30,LOW(4)
000f4e 2ebe      	MOV  R11,R30
         ;    1900 			}
         ;    1901 		else if(but==butU)
000f4f c005      	RJMP _0x1F6
          _0x1F5:
000f50 eeef      	LDI  R30,LOW(239)
000f51 15e8      	CP   R30,R8
000f52 f411      	BRNE _0x1F7
         ;    1902 			{
         ;    1903 			sub_ind=2;
000f53 e0e2      	LDI  R30,LOW(2)
000f54 2ebe      	MOV  R11,R30
         ;    1904 			}					
         ;    1905 		}
          _0x1F7:
          _0x1F6:
          _0x1F4:
          _0x1F0:
         ;    1906 	else if(sub_ind==4)
000f55 c049      	RJMP _0x1F8
          _0x1EC:
000f56 e0e4      	LDI  R30,LOW(4)
000f57 15eb      	CP   R30,R11
000f58 f4f1      	BRNE _0x1F9
         ;    1907 		{
         ;    1908 		if((but==butR)||(but==butR_))
000f59 e7ef      	LDI  R30,LOW(127)
000f5a 15e8      	CP   R30,R8
000f5b f019      	BREQ _0x1FB
000f5c e7ee      	LDI  R30,LOW(126)
000f5d 15e8      	CP   R30,R8
000f5e f419      	BRNE _0x1FA
          _0x1FB:
         ;    1909 			{
         ;    1910 			speed=1;
000f5f 9468      	SET
000f60 f827      	BLD  R2,7
         ;    1911 			//ee_ostiv_time++;
         ;    1912 			//gran_ee(&ee_ostiv_time,10,1000);
         ;    1913 			}
         ;    1914 		else if((but==butL)||(but==butL_))
000f61 c014      	RJMP _0x1FD
          _0x1FA:
000f62 ebef      	LDI  R30,LOW(191)
000f63 15e8      	CP   R30,R8
000f64 f019      	BREQ _0x1FF
000f65 ebee      	LDI  R30,LOW(190)
000f66 15e8      	CP   R30,R8
000f67 f419      	BRNE _0x1FE
          _0x1FF:
         ;    1915 			{
         ;    1916 			speed=1;
000f68 9468      	SET
000f69 f827      	BLD  R2,7
         ;    1917 			//ee_ostiv_time--;
         ;    1918 			//gran_ee(&ee_ostiv_time,10,1000);
         ;    1919 			}
         ;    1920 		else if(but==butD)
000f6a c00b      	RJMP _0x201
          _0x1FE:
000f6b edef      	LDI  R30,LOW(223)
000f6c 15e8      	CP   R30,R8
000f6d f419      	BRNE _0x202
         ;    1921 			{
         ;    1922 			sub_ind=5;
000f6e e0e5      	LDI  R30,LOW(5)
000f6f 2ebe      	MOV  R11,R30
         ;    1923 			}
         ;    1924 		else if(but==butU)
000f70 c005      	RJMP _0x203
          _0x202:
000f71 eeef      	LDI  R30,LOW(239)
000f72 15e8      	CP   R30,R8
000f73 f411      	BRNE _0x204
         ;    1925 			{
         ;    1926 			sub_ind=3;
000f74 e0e3      	LDI  R30,LOW(3)
000f75 2ebe      	MOV  R11,R30
         ;    1927 			}					
         ;    1928 		}			  
          _0x204:
          _0x203:
          _0x201:
          _0x1FD:
         ;    1929 	else if(sub_ind==5)
000f76 c028      	RJMP _0x205
          _0x1F9:
000f77 e0e5      	LDI  R30,LOW(5)
000f78 15eb      	CP   R30,R11
000f79 f491      	BRNE _0x206
         ;    1930 		{
         ;    1931 		if(but==butE)
000f7a efe7      	LDI  R30,LOW(247)
000f7b 15e8      	CP   R30,R8
000f7c f419      	BRNE _0x207
         ;    1932 			{
         ;    1933 			ind=iMn;
000f7d 940e 1579 	CALL SUBOPT_0x5D
         ;    1934 			sub_ind=0;
         ;    1935 			nakal_cnt=0;
         ;    1936 			//wrk_state=wsOFF;			
         ;    1937 			}
         ;    1938 		else if(but==butD)
000f7f c00b      	RJMP _0x208
          _0x207:
000f80 edef      	LDI  R30,LOW(223)
000f81 15e8      	CP   R30,R8
000f82 f419      	BRNE _0x209
         ;    1939 			{
         ;    1940 			sub_ind=6;
000f83 e0e6      	LDI  R30,LOW(6)
000f84 2ebe      	MOV  R11,R30
         ;    1941 			}
         ;    1942 		else if(but==butU)
000f85 c005      	RJMP _0x20A
          _0x209:
000f86 eeef      	LDI  R30,LOW(239)
000f87 15e8      	CP   R30,R8
000f88 f411      	BRNE _0x20B
         ;    1943 			{
         ;    1944 			sub_ind=4;
000f89 e0e4      	LDI  R30,LOW(4)
000f8a 2ebe      	MOV  R11,R30
         ;    1945 			}					
         ;    1946 		}
          _0x20B:
          _0x20A:
          _0x208:
         ;    1947 	else if(sub_ind==6)
000f8b c013      	RJMP _0x20C
          _0x206:
000f8c e0e6      	LDI  R30,LOW(6)
000f8d 15eb      	CP   R30,R11
000f8e f481      	BRNE _0x20D
         ;    1948 		{
         ;    1949 		if(but==butE)
000f8f efe7      	LDI  R30,LOW(247)
000f90 15e8      	CP   R30,R8
000f91 f441      	BRNE _0x20E
         ;    1950 			{
         ;    1951 			ind=iK;
000f92 940e 155f 	CALL SUBOPT_0x59
         ;    1952 			sub_ind=0;
         ;    1953 			nakal_cnt=0;
000f94 e0e0      	LDI  R30,0
000f95 93e0 0315 	STS  _nakal_cnt,R30
000f97 93e0 0316 	STS  _nakal_cnt+1,R30
         ;    1954 			}
         ;    1955 		else if(but==butU)
000f99 c005      	RJMP _0x20F
          _0x20E:
000f9a eeef      	LDI  R30,LOW(239)
000f9b 15e8      	CP   R30,R8
000f9c f411      	BRNE _0x210
         ;    1956 			{
         ;    1957 			sub_ind=5;
000f9d e0e5      	LDI  R30,LOW(5)
000f9e 2ebe      	MOV  R11,R30
         ;    1958 			}	
         ;    1959 		}														
          _0x210:
          _0x20F:
         ;    1960 	}
          _0x20D:
          _0x20C:
          _0x205:
          _0x1F8:
          _0x1EB:
          _0x1DE:
          _0x1C7:
         ;    1961 	
         ;    1962 else if(ind==iK)
000f9f c0e3      	RJMP _0x211
          _0x1C5:
000fa0 e0ea      	LDI  R30,LOW(10)
000fa1 e0f0      	LDI  R31,HIGH(10)
000fa2 15e6      	CP   R30,R6
000fa3 05f7      	CPC  R31,R7
000fa4 f011      	BREQ PC+3
000fa5 940c 1083 	JMP _0x212
         ;    1963 	{
         ;    1964 	if(sub_ind==0)
000fa7 20bb      	TST  R11
000fa8 f011      	BREQ PC+3
000fa9 940c 100b 	JMP _0x213
         ;    1965 		{
         ;    1966 		if((but==butR)||(but==butR_))
000fab e7ef      	LDI  R30,LOW(127)
000fac 15e8      	CP   R30,R8
000fad f019      	BREQ _0x215
000fae e7ee      	LDI  R30,LOW(126)
000faf 15e8      	CP   R30,R8
000fb0 f539      	BRNE _0x214
          _0x215:
         ;    1967 			{
         ;    1968 			speed=1;              
000fb1 9468      	SET
000fb2 f827      	BLD  R2,7
         ;    1969 			if(!nakal_cnt)nakal_cnt=300;
000fb3 91e0 0315 	LDS  R30,_nakal_cnt
000fb5 91f0 0316 	LDS  R31,_nakal_cnt+1
000fb7 9730      	SBIW R30,0
000fb8 f439      	BRNE _0x217
000fb9 e2ec      	LDI  R30,LOW(300)
000fba e0f1      	LDI  R31,HIGH(300)
000fbb 93e0 0315 	STS  _nakal_cnt,R30
000fbd 93f0 0316 	STS  _nakal_cnt+1,R31
         ;    1970 			else if((nakal_cnt>=200)&&(nakal_cnt<300))
000fbf c015      	RJMP _0x218
          _0x217:
000fc0 91a0 0315 	LDS  R26,_nakal_cnt
000fc2 91b0 0316 	LDS  R27,_nakal_cnt+1
000fc4 3ca8      	CPI  R26,LOW(0xC8)
000fc5 e0e0      	LDI  R30,HIGH(0xC8)
000fc6 07be      	CPC  R27,R30
000fc7 f024      	BRLT _0x21A
000fc8 32ac      	CPI  R26,LOW(0x12C)
000fc9 e0e1      	LDI  R30,HIGH(0x12C)
000fca 07be      	CPC  R27,R30
000fcb f00c      	BRLT _0x21B
          _0x21A:
000fcc c008      	RJMP _0x219
          _0x21B:
         ;    1971 				{
         ;    1972 				Ku++;
000fcd e3a2      	LDI  R26,LOW(_Ku)
000fce e0b0      	LDI  R27,HIGH(_Ku)
000fcf 940e 16b0 	CALL __EEPROMRDW
000fd1 9631      	ADIW R30,1
000fd2 940e 16c0 	CALL __EEPROMWRW
000fd4 9731      	SBIW R30,1
         ;    1973 				}
         ;    1974 			gran_ee(&Ku,100,200);
          _0x219:
          _0x218:
000fd5 940e 1582 	CALL SUBOPT_0x5E
         ;    1975 			}
         ;    1976 		else if((but==butL)||(but==butL_))
000fd7 c032      	RJMP _0x21C
          _0x214:
000fd8 ebef      	LDI  R30,LOW(191)
000fd9 15e8      	CP   R30,R8
000fda f019      	BREQ _0x21E
000fdb ebee      	LDI  R30,LOW(190)
000fdc 15e8      	CP   R30,R8
000fdd f539      	BRNE _0x21D
          _0x21E:
         ;    1977 			{
         ;    1978 			speed=1;                    
000fde 9468      	SET
000fdf f827      	BLD  R2,7
         ;    1979 			if(!nakal_cnt)nakal_cnt=300;
000fe0 91e0 0315 	LDS  R30,_nakal_cnt
000fe2 91f0 0316 	LDS  R31,_nakal_cnt+1
000fe4 9730      	SBIW R30,0
000fe5 f439      	BRNE _0x220
000fe6 e2ec      	LDI  R30,LOW(300)
000fe7 e0f1      	LDI  R31,HIGH(300)
000fe8 93e0 0315 	STS  _nakal_cnt,R30
000fea 93f0 0316 	STS  _nakal_cnt+1,R31
         ;    1980 			else if((nakal_cnt>=200)&&(nakal_cnt<300))
000fec c015      	RJMP _0x221
          _0x220:
000fed 91a0 0315 	LDS  R26,_nakal_cnt
000fef 91b0 0316 	LDS  R27,_nakal_cnt+1
000ff1 3ca8      	CPI  R26,LOW(0xC8)
000ff2 e0e0      	LDI  R30,HIGH(0xC8)
000ff3 07be      	CPC  R27,R30
000ff4 f024      	BRLT _0x223
000ff5 32ac      	CPI  R26,LOW(0x12C)
000ff6 e0e1      	LDI  R30,HIGH(0x12C)
000ff7 07be      	CPC  R27,R30
000ff8 f00c      	BRLT _0x224
          _0x223:
000ff9 c008      	RJMP _0x222
          _0x224:
         ;    1981 				{
         ;    1982 				Ku--;
000ffa e3a2      	LDI  R26,LOW(_Ku)
000ffb e0b0      	LDI  R27,HIGH(_Ku)
000ffc 940e 16b0 	CALL __EEPROMRDW
000ffe 9731      	SBIW R30,1
000fff 940e 16c0 	CALL __EEPROMWRW
001001 9631      	ADIW R30,1
         ;    1983 				}
         ;    1984 			gran_ee(&Ku,100,200);
          _0x222:
          _0x221:
001002 940e 1582 	CALL SUBOPT_0x5E
         ;    1985 			}
         ;    1986 		else if(but==butD)
001004 c005      	RJMP _0x225
          _0x21D:
001005 edef      	LDI  R30,LOW(223)
001006 15e8      	CP   R30,R8
001007 f411      	BRNE _0x226
         ;    1987 			{
         ;    1988 			sub_ind=1;
001008 e0e1      	LDI  R30,LOW(1)
001009 2ebe      	MOV  R11,R30
         ;    1989 			}
         ;    1990 		}
          _0x226:
          _0x225:
          _0x21C:
         ;    1991 	else if(sub_ind==1)
00100a c078      	RJMP _0x227
          _0x213:
00100b e0e1      	LDI  R30,LOW(1)
00100c 15eb      	CP   R30,R11
00100d f011      	BREQ PC+3
00100e 940c 1075 	JMP _0x228
         ;    1992 		{
         ;    1993 		if((but==butR)||(but==butR_))
001010 e7ef      	LDI  R30,LOW(127)
001011 15e8      	CP   R30,R8
001012 f019      	BREQ _0x22A
001013 e7ee      	LDI  R30,LOW(126)
001014 15e8      	CP   R30,R8
001015 f539      	BRNE _0x229
          _0x22A:
         ;    1994 			{
         ;    1995 			speed=1;                    
001016 9468      	SET
001017 f827      	BLD  R2,7
         ;    1996 			if(!nakal_cnt)nakal_cnt=300;
001018 91e0 0315 	LDS  R30,_nakal_cnt
00101a 91f0 0316 	LDS  R31,_nakal_cnt+1
00101c 9730      	SBIW R30,0
00101d f439      	BRNE _0x22C
00101e e2ec      	LDI  R30,LOW(300)
00101f e0f1      	LDI  R31,HIGH(300)
001020 93e0 0315 	STS  _nakal_cnt,R30
001022 93f0 0316 	STS  _nakal_cnt+1,R31
         ;    1997 			else if((nakal_cnt>=200)&&(nakal_cnt<300))
001024 c015      	RJMP _0x22D
          _0x22C:
001025 91a0 0315 	LDS  R26,_nakal_cnt
001027 91b0 0316 	LDS  R27,_nakal_cnt+1
001029 3ca8      	CPI  R26,LOW(0xC8)
00102a e0e0      	LDI  R30,HIGH(0xC8)
00102b 07be      	CPC  R27,R30
00102c f024      	BRLT _0x22F
00102d 32ac      	CPI  R26,LOW(0x12C)
00102e e0e1      	LDI  R30,HIGH(0x12C)
00102f 07be      	CPC  R27,R30
001030 f00c      	BRLT _0x230
          _0x22F:
001031 c008      	RJMP _0x22E
          _0x230:
         ;    1998 				{
         ;    1999 				Ki++;
001032 e3a4      	LDI  R26,LOW(_Ki)
001033 e0b0      	LDI  R27,HIGH(_Ki)
001034 940e 16b0 	CALL __EEPROMRDW
001036 9631      	ADIW R30,1
001037 940e 16c0 	CALL __EEPROMWRW
001039 9731      	SBIW R30,1
         ;    2000 				}
         ;    2001 			gran_ee(&Ki,100,200);
          _0x22E:
          _0x22D:
00103a 940e 1590 	CALL SUBOPT_0x5F
         ;    2002 			}
         ;    2003 		else if((but==butL)||(but==butL_))
00103c c037      	RJMP _0x231
          _0x229:
00103d ebef      	LDI  R30,LOW(191)
00103e 15e8      	CP   R30,R8
00103f f019      	BREQ _0x233
001040 ebee      	LDI  R30,LOW(190)
001041 15e8      	CP   R30,R8
001042 f539      	BRNE _0x232
          _0x233:
         ;    2004 			{
         ;    2005 			speed=1;                    
001043 9468      	SET
001044 f827      	BLD  R2,7
         ;    2006 			if(!nakal_cnt)nakal_cnt=300;
001045 91e0 0315 	LDS  R30,_nakal_cnt
001047 91f0 0316 	LDS  R31,_nakal_cnt+1
001049 9730      	SBIW R30,0
00104a f439      	BRNE _0x235
00104b e2ec      	LDI  R30,LOW(300)
00104c e0f1      	LDI  R31,HIGH(300)
00104d 93e0 0315 	STS  _nakal_cnt,R30
00104f 93f0 0316 	STS  _nakal_cnt+1,R31
         ;    2007 			else if((nakal_cnt>=200)&&(nakal_cnt<300))
001051 c015      	RJMP _0x236
          _0x235:
001052 91a0 0315 	LDS  R26,_nakal_cnt
001054 91b0 0316 	LDS  R27,_nakal_cnt+1
001056 3ca8      	CPI  R26,LOW(0xC8)
001057 e0e0      	LDI  R30,HIGH(0xC8)
001058 07be      	CPC  R27,R30
001059 f024      	BRLT _0x238
00105a 32ac      	CPI  R26,LOW(0x12C)
00105b e0e1      	LDI  R30,HIGH(0x12C)
00105c 07be      	CPC  R27,R30
00105d f00c      	BRLT _0x239
          _0x238:
00105e c008      	RJMP _0x237
          _0x239:
         ;    2008 				{
         ;    2009 				Ki--;
00105f e3a4      	LDI  R26,LOW(_Ki)
001060 e0b0      	LDI  R27,HIGH(_Ki)
001061 940e 16b0 	CALL __EEPROMRDW
001063 9731      	SBIW R30,1
001064 940e 16c0 	CALL __EEPROMWRW
001066 9631      	ADIW R30,1
         ;    2010 				}
         ;    2011 			gran_ee(&Ki,100,200);
          _0x237:
          _0x236:
001067 940e 1590 	CALL SUBOPT_0x5F
         ;    2012 			}
         ;    2013 		else if(but==butD)
001069 c00a      	RJMP _0x23A
          _0x232:
00106a edef      	LDI  R30,LOW(223)
00106b 15e8      	CP   R30,R8
00106c f419      	BRNE _0x23B
         ;    2014 			{
         ;    2015 			sub_ind=2;
00106d e0e2      	LDI  R30,LOW(2)
00106e 2ebe      	MOV  R11,R30
         ;    2016 			}
         ;    2017 		else if(but==butU)
00106f c004      	RJMP _0x23C
          _0x23B:
001070 eeef      	LDI  R30,LOW(239)
001071 15e8      	CP   R30,R8
001072 f409      	BRNE _0x23D
         ;    2018 			{
         ;    2019 			sub_ind=0;
001073 24bb      	CLR  R11
         ;    2020 			}	    
         ;    2021 		}		 		                         
          _0x23D:
          _0x23C:
          _0x23A:
          _0x231:
         ;    2022 	else if(sub_ind==2)
001074 c00e      	RJMP _0x23E
          _0x228:
001075 e0e2      	LDI  R30,LOW(2)
001076 15eb      	CP   R30,R11
001077 f459      	BRNE _0x23F
         ;    2023 		{
         ;    2024 		if(but==butE)
001078 efe7      	LDI  R30,LOW(247)
001079 15e8      	CP   R30,R8
00107a f419      	BRNE _0x240
         ;    2025 			{
         ;    2026 			ind=iMn;
00107b 940e 1579 	CALL SUBOPT_0x5D
         ;    2027 			sub_ind=0;
         ;    2028 			nakal_cnt=0;
         ;    2029 			//wrk_state=wsOFF;			
         ;    2030 			}
         ;    2031 		else if(but==butU)
00107d c005      	RJMP _0x241
          _0x240:
00107e eeef      	LDI  R30,LOW(239)
00107f 15e8      	CP   R30,R8
001080 f411      	BRNE _0x242
         ;    2032 			{
         ;    2033 			sub_ind=1;
001081 e0e1      	LDI  R30,LOW(1)
001082 2ebe      	MOV  R11,R30
         ;    2034 			}	  					
         ;    2035 		}		
          _0x242:
          _0x241:
         ;    2036 
         ;    2037 	}		  			  				
          _0x23F:
          _0x23E:
          _0x227:
         ;    2038 but_an_end:
          _0x212:
          _0x211:
          _0x1C4:
          _0x1B3:
          _0x184:
          _0x181:
          _0x16F:
          _0x16A:
         ;    2039 n_but=0;           
001083 94e8      	CLT
001084 f826      	BLD  R2,6
         ;    2040 }	   
001085 940e 16ea 	CALL __LOADLOCR3
001087 9623      	ADIW R28,3
001088 9508      	RET
         ;    2041 
         ;    2042 
         ;    2043 //***********************************************
         ;    2044 //***********************************************
         ;    2045 //***********************************************
         ;    2046 //***********************************************
         ;    2047 //***********************************************
         ;    2048 
         ;    2049 
         ;    2050 //***********************************************
         ;    2051 interrupt [TIM0_OVF] void timer0_ovf_isr(void)
         ;    2052 {
          _timer0_ovf_isr:
001089 93aa      	ST   -Y,R26
00108a 93ba      	ST   -Y,R27
00108b 93ea      	ST   -Y,R30
00108c 93fa      	ST   -Y,R31
00108d b7ef      	IN   R30,SREG
00108e 93ea      	ST   -Y,R30
         ;    2053 static char t0cnt0,t0cnt1,t0cnt2,t0cnt3,t0cnt4,/*t0cnt5,*/t0cnt6;
         
          	.DSEG
          _t0cnt0_S26:
0003a9      	.BYTE 0x1
          _t0cnt1_S26:
0003aa      	.BYTE 0x1
          _t0cnt2_S26:
0003ab      	.BYTE 0x1
          _t0cnt3_S26:
0003ac      	.BYTE 0x1
          _t0cnt4_S26:
0003ad      	.BYTE 0x1
          _t0cnt6_S26:
0003ae      	.BYTE 0x1
         
          	.CSEG
         ;    2054 char temp;
         ;    2055 
         ;    2056 TCNT0=-208; 
00108f 930a      	ST   -Y,R16
         ;	temp -> R16
001090 e3e0      	LDI  R30,LOW(65328)
001091 efff      	LDI  R31,HIGH(65328)
001092 bfe2      	OUT  0x32,R30
         ;    2057 
         ;    2058 #ifdef MIKRAN
         ;    2059 bFF=PINB.0;
         ;    2060 if(bFF!=bFF_)
         ;    2061 	{
         ;    2062 	Hz_out++;
         ;    2063 	}        
         ;    2064 bFF_=bFF;    
         ;    2065 #endif
         ;    2066 
         ;    2067 if(++t0cnt0_>=6)
001093 91a0 028d 	LDS  R26,_t0cnt0_
001095 5faf      	SUBI R26,-LOW(1)
001096 93a0 028d 	STS  _t0cnt0_,R26
001098 30a6      	CPI  R26,LOW(0x6)
001099 f020      	BRLO _0x243
         ;    2068 	{
         ;    2069 	t0cnt0_=0;
00109a e0e0      	LDI  R30,LOW(0)
00109b 93e0 028d 	STS  _t0cnt0_,R30
         ;    2070 	}
         ;    2071 else goto timer1_ovf_isr_end;
00109d c001      	RJMP _0x244
          _0x243:
00109e c062      	RJMP _0x245
          _0x244:
         ;    2072 
         ;    2073 
         ;    2074 
         ;    2075 b100Hz=1;
00109f 9468      	SET
0010a0 f820      	BLD  R2,0
         ;    2076 
         ;    2077 Hz_cnt++;
0010a1 91e0 028b 	LDS  R30,_Hz_cnt
0010a3 91f0 028c 	LDS  R31,_Hz_cnt+1
0010a5 9631      	ADIW R30,1
0010a6 93e0 028b 	STS  _Hz_cnt,R30
0010a8 93f0 028c 	STS  _Hz_cnt+1,R31
         ;    2078 if(Hz_cnt>=978)
0010aa 91a0 028b 	LDS  R26,_Hz_cnt
0010ac 91b0 028c 	LDS  R27,_Hz_cnt+1
0010ae 3da2      	CPI  R26,LOW(0x3D2)
0010af e0e3      	LDI  R30,HIGH(0x3D2)
0010b0 07be      	CPC  R27,R30
0010b1 f0a4      	BRLT _0x246
         ;    2079 	{	
         ;    2080 	Hz_cnt=0;
0010b2 e0e0      	LDI  R30,0
0010b3 93e0 028b 	STS  _Hz_cnt,R30
0010b5 93e0 028c 	STS  _Hz_cnt+1,R30
         ;    2081 	Fnet=Hz_out/2;
0010b7 91e0 0289 	LDS  R30,_Hz_out
0010b9 91f0 028a 	LDS  R31,_Hz_out+1
0010bb 95f5      	ASR  R31
0010bc 95e7      	ROR  R30
0010bd 93e0 0287 	STS  _Fnet,R30
0010bf 93f0 0288 	STS  _Fnet+1,R31
         ;    2082 	Hz_out=0;
0010c1 e0e0      	LDI  R30,0
0010c2 93e0 0289 	STS  _Hz_out,R30
0010c4 93e0 028a 	STS  _Hz_out+1,R30
         ;    2083 	}
         ;    2084 
         ;    2085 
         ;    2086 #ifdef _CAN_
         ;    2087 CANst=spi_read_status();
         ;    2088 if(CANst)
         ;    2089 	{
         ;    2090 	bCAN=1;
         ;    2091 	}  
         ;    2092 #endif
         ;    2093 
         ;    2094 if(++t0cnt0>=10)
          _0x246:
0010c6 91a0 03a9 	LDS  R26,_t0cnt0_S26
0010c8 5faf      	SUBI R26,-LOW(1)
0010c9 93a0 03a9 	STS  _t0cnt0_S26,R26
0010cb 30aa      	CPI  R26,LOW(0xA)
0010cc f070      	BRLO _0x247
         ;    2095 	{
         ;    2096 	t0cnt0=0;
0010cd e0e0      	LDI  R30,LOW(0)
0010ce 93e0 03a9 	STS  _t0cnt0_S26,R30
         ;    2097 	b10Hz=1;
0010d0 9468      	SET
0010d1 f821      	BLD  R2,1
         ;    2098 	if(++def_char_cnt>=10)def_char_cnt=0;
0010d2 91a0 0352 	LDS  R26,_def_char_cnt
0010d4 5faf      	SUBI R26,-LOW(1)
0010d5 93a0 0352 	STS  _def_char_cnt,R26
0010d7 30aa      	CPI  R26,LOW(0xA)
0010d8 f010      	BRLO _0x248
0010d9 93e0 0352 	STS  _def_char_cnt,R30
         ;    2099 	}
          _0x248:
         ;    2100 
         ;    2101 if(++t0cnt1>=20)
          _0x247:
0010db 91a0 03aa 	LDS  R26,_t0cnt1_S26
0010dd 5faf      	SUBI R26,-LOW(1)
0010de 93a0 03aa 	STS  _t0cnt1_S26,R26
0010e0 31a4      	CPI  R26,LOW(0x14)
0010e1 f028      	BRLO _0x249
         ;    2102 	{
         ;    2103 	t0cnt1=0;
0010e2 e0e0      	LDI  R30,LOW(0)
0010e3 93e0 03aa 	STS  _t0cnt1_S26,R30
         ;    2104 	b5Hz=1;
0010e5 9468      	SET
0010e6 f822      	BLD  R2,2
         ;    2105 	
         ;    2106 	}
         ;    2107 
         ;    2108 if(++t0cnt2>=50)
          _0x249:
0010e7 91a0 03ab 	LDS  R26,_t0cnt2_S26
0010e9 5faf      	SUBI R26,-LOW(1)
0010ea 93a0 03ab 	STS  _t0cnt2_S26,R26
0010ec 33a2      	CPI  R26,LOW(0x32)
0010ed f038      	BRLO _0x24A
         ;    2109 	{
         ;    2110 	t0cnt2=0;
0010ee e0e0      	LDI  R30,LOW(0)
0010ef 93e0 03ab 	STS  _t0cnt2_S26,R30
         ;    2111 	b2Hz=1;
0010f1 9468      	SET
0010f2 f823      	BLD  R2,3
         ;    2112 	bFL2=!bFL2;
0010f3 e4e0      	LDI  R30,LOW(64)
0010f4 263e      	EOR  R3,R30
         ;    2113 	}         
         ;    2114 
         ;    2115 if(++t0cnt3>=100)
          _0x24A:
0010f5 91a0 03ac 	LDS  R26,_t0cnt3_S26
0010f7 5faf      	SUBI R26,-LOW(1)
0010f8 93a0 03ac 	STS  _t0cnt3_S26,R26
0010fa 36a4      	CPI  R26,LOW(0x64)
0010fb f028      	BRLO _0x24B
         ;    2116 	{
         ;    2117 	t0cnt3=0;
0010fc e0e0      	LDI  R30,LOW(0)
0010fd 93e0 03ac 	STS  _t0cnt3_S26,R30
         ;    2118 	b1Hz=1;
0010ff 9468      	SET
001100 f824      	BLD  R2,4
         ;    2119 	}
         ;    2120 timer1_ovf_isr_end:
          _0x24B:
          _0x245:
         ;    2121 }
001101 9109      	LD   R16,Y+
001102 91e9      	LD   R30,Y+
001103 bfef      	OUT  SREG,R30
001104 91f9      	LD   R31,Y+
001105 91e9      	LD   R30,Y+
001106 91b9      	LD   R27,Y+
001107 91a9      	LD   R26,Y+
001108 9518      	RETI
         ;    2122 
         ;    2123 //===============================================
         ;    2124 //===============================================
         ;    2125 //===============================================
         ;    2126 //===============================================
         ;    2127 void main(void)
         ;    2128 {
          _main:
         ;    2129 char temp_char;
         ;    2130 int temp_int;
         ;    2131 
         ;    2132 PORTA=0x00;
         ;	temp_char -> R16
         ;	temp_int -> R17,R18
001109 e0e0      	LDI  R30,LOW(0)
00110a bbeb      	OUT  0x1B,R30
         ;    2133 DDRA=0x00;
00110b bbea      	OUT  0x1A,R30
         ;    2134 
         ;    2135 PORTB=0x10;
00110c e1e0      	LDI  R30,LOW(16)
00110d bbe8      	OUT  0x18,R30
         ;    2136 DDRB=0x00;
00110e e0e0      	LDI  R30,LOW(0)
00110f bbe7      	OUT  0x17,R30
         ;    2137 
         ;    2138 PORTC=0x00;
001110 bbe5      	OUT  0x15,R30
         ;    2139 DDRC=0x00;
001111 bbe4      	OUT  0x14,R30
         ;    2140 
         ;    2141 PORTD=0x00;
001112 bbe2      	OUT  0x12,R30
         ;    2142 DDRD=0x30;
001113 e3e0      	LDI  R30,LOW(48)
001114 bbe1      	OUT  0x11,R30
         ;    2143 
         ;    2144 
         ;    2145 
         ;    2146 
         ;    2147 GICR=0x00;
001115 e0e0      	LDI  R30,LOW(0)
001116 bfeb      	OUT  0x3B,R30
         ;    2148 MCUCR=0x00;
001117 bfe5      	OUT  0x35,R30
         ;    2149 MCUCSR=0x00;
001118 bfe4      	OUT  0x34,R30
         ;    2150 GIFR=0x00;
001119 bfea      	OUT  0x3A,R30
         ;    2151 
         ;    2152 
         ;    2153 
         ;    2154 // Timer/Counter 0 initialization
         ;    2155 // Clock source: System Clock
         ;    2156 // Clock value: 125,000 kHz
         ;    2157 // Mode: Normal top=FFh
         ;    2158 // OC0 output: Disconnected
         ;    2159 TCCR0=0x03;
00111a e0e3      	LDI  R30,LOW(3)
00111b bfe3      	OUT  0x33,R30
         ;    2160 TCNT0=-208;
00111c e3e0      	LDI  R30,LOW(65328)
00111d efff      	LDI  R31,HIGH(65328)
00111e bfe2      	OUT  0x32,R30
         ;    2161 OCR0=0x00;
00111f e0e0      	LDI  R30,LOW(0)
001120 bfec      	OUT  0x3C,R30
         ;    2162 
         ;    2163 // Timer/Counter 1 initialization
         ;    2164 // Clock source: System Clock
         ;    2165 // Clock value: 8000,000 kHz
         ;    2166 // Mode: Fast PWM top=03FFh
         ;    2167 // OC1A output: Non-Inv.
         ;    2168 // OC1B output: Non-Inv.
         ;    2169 // Noise Canceler: Off
         ;    2170 // Input Capture on Falling Edge
         ;    2171 TCCR1A=0x21;
001121 e2e1      	LDI  R30,LOW(33)
001122 bdef      	OUT  0x2F,R30
         ;    2172 TCCR1B=0x09;
001123 e0e9      	LDI  R30,LOW(9)
001124 bdee      	OUT  0x2E,R30
         ;    2173 TCNT1H=0x00;
001125 e0e0      	LDI  R30,LOW(0)
001126 bded      	OUT  0x2D,R30
         ;    2174 TCNT1L=0x00;
001127 bdec      	OUT  0x2C,R30
         ;    2175 ICR1H=0x00;
001128 bde7      	OUT  0x27,R30
         ;    2176 ICR1L=0x00;
001129 bde6      	OUT  0x26,R30
         ;    2177 OCR1B=700;
00112a ebec      	LDI  R30,LOW(700)
00112b e0f2      	LDI  R31,HIGH(700)
00112c bdf9      	OUT  0x28+1,R31
00112d bde8      	OUT  0x28,R30
         ;    2178 
         ;    2179 TIMSK=0x01;
00112e e0e1      	LDI  R30,LOW(1)
00112f bfe9      	OUT  0x39,R30
         ;    2180 
         ;    2181 UCSRA=0x00;
001130 e0e0      	LDI  R30,LOW(0)
001131 b9eb      	OUT  0xB,R30
         ;    2182 UCSRB=0x00;
001132 b9ea      	OUT  0xA,R30
         ;    2183 
         ;    2184 matemat();
001133 940e 04ae 	CALL _matemat
         ;    2185 
         ;    2186 ADMUX=0x00;
001135 e0e0      	LDI  R30,LOW(0)
001136 b9e7      	OUT  0x7,R30
         ;    2187 ADCSR=0x86;
001137 e8e6      	LDI  R30,LOW(134)
001138 b9e6      	OUT  0x6,R30
         ;    2188 lcd_init(16);
001139 e1e0      	LDI  R30,LOW(16)
00113a 93ea      	ST   -Y,R30
00113b 940e 122f 	CALL _lcd_init
         ;    2189 simbol_define();
00113d 940e 0424 	CALL _simbol_define
         ;    2190 
         ;    2191 #asm("sei")
00113f 9478      	sei
         ;    2192 
         ;    2193 
         ;    2194 
         ;    2195 ind=iMn;
001140 2466      	CLR  R6
001141 2477      	CLR  R7
         ;    2196 sub_ind=1;
001142 e0e1      	LDI  R30,LOW(1)
001143 2ebe      	MOV  R11,R30
         ;    2197 sub_ind1=0;
001144 24cc      	CLR  R12
         ;    2198 
         ;    2199 ind_mode=im_1;
001145 e0e0      	LDI  R30,LOW(0)
001146 e0f0      	LDI  R31,HIGH(0)
001147 e3a6      	LDI  R26,LOW(_ind_mode)
001148 e0b0      	LDI  R27,HIGH(_ind_mode)
001149 940e 16c0 	CALL __EEPROMWRW
         ;    2200 
         ;    2201 restart_process(0);
00114b 93ea      	ST   -Y,R30
00114c 940e 029a 	CALL _restart_process
         ;    2202 restart_process(1);
00114e e0e1      	LDI  R30,LOW(1)
00114f 93ea      	ST   -Y,R30
001150 940e 029a 	CALL _restart_process
         ;    2203 restart_process(2);
001152 e0e2      	LDI  R30,LOW(2)
001153 93ea      	ST   -Y,R30
001154 940e 029a 	CALL _restart_process
         ;    2204 restart_process(3);
001156 e0e3      	LDI  R30,LOW(3)
001157 93ea      	ST   -Y,R30
001158 940e 029a 	CALL _restart_process
         ;    2205 
         ;    2206 
         ;    2207 while (1)
          _0x24C:
         ;    2208 	{
         ;    2209 	#asm("wdr")
00115a 95a8      	wdr
         ;    2210  	
         ;    2211 	if(b100Hz)
00115b fe20      	SBRS R2,0
00115c c008      	RJMP _0x24F
         ;    2212 		{
         ;    2213 		b100Hz=0; 
00115d 94e8      	CLT
00115e f820      	BLD  R2,0
         ;    2214 		
         ;    2215 		adc_drv();
00115f 940e 039a 	CALL _adc_drv
         ;    2216           but_drv();
001161 940e 0c1c 	CALL _but_drv
         ;    2217           but_an();
001163 940e 0c99 	CALL _but_an
         ;    2218   		
         ;    2219 		}	 
         ;    2220 	if(b10Hz)
          _0x24F:
001165 fe21      	SBRS R2,1
001166 c008      	RJMP _0x250
         ;    2221 		{
         ;    2222 		b10Hz=0;
001167 94e8      	CLT
001168 f821      	BLD  R2,1
         ;    2223           simbol_define();
001169 940e 0424 	CALL _simbol_define
         ;    2224           ind_hndl();
00116b 940e 080c 	CALL _ind_hndl
         ;    2225 		lcd_out(); 
00116d 940e 049a 	CALL _lcd_out
         ;    2226 		//wrk_state_drv();
         ;    2227 		
         ;    2228 		}	
         ;    2229 	if(b5Hz)
          _0x250:
00116f fe22      	SBRS R2,2
001170 c006      	RJMP _0x251
         ;    2230 		{
         ;    2231 		b5Hz=0;
001171 94e8      	CLT
001172 f822      	BLD  R2,2
         ;    2232 		
         ;    2233 		ret_ind_hndl();
001173 940e 0232 	CALL _ret_ind_hndl
         ;    2234 		matemat();
001175 940e 04ae 	CALL _matemat
         ;    2235 		//out_out();
         ;    2236   
         ;    2237   		}
         ;    2238 	if(b2Hz)
          _0x251:
001177 fe23      	SBRS R2,3
001178 c014      	RJMP _0x252
         ;    2239 		{
         ;    2240 		b2Hz=0;
001179 94e8      	CLT
00117a f823      	BLD  R2,3
         ;    2241   		wrk_process(0);
00117b e0e0      	LDI  R30,LOW(0)
00117c 93ea      	ST   -Y,R30
00117d 940e 02cb 	CALL _wrk_process
         ;    2242   		wrk_process(1);
00117f e0e1      	LDI  R30,LOW(1)
001180 93ea      	ST   -Y,R30
001181 940e 02cb 	CALL _wrk_process
         ;    2243   		wrk_process(2);
001183 e0e2      	LDI  R30,LOW(2)
001184 93ea      	ST   -Y,R30
001185 940e 02cb 	CALL _wrk_process
         ;    2244   		wrk_process(3);
001187 e0e3      	LDI  R30,LOW(3)
001188 93ea      	ST   -Y,R30
001189 940e 02cb 	CALL _wrk_process
         ;    2245   		out_drv();
00118b 940e 0375 	CALL _out_drv
         ;    2246 		}								
         ;    2247 	if(b1Hz)
          _0x252:
00118d fe24      	SBRS R2,4
00118e c002      	RJMP _0x253
         ;    2248 		{
         ;    2249 		b1Hz=0;
00118f 94e8      	CLT
001190 f824      	BLD  R2,4
         ;    2250 		
         ;    2251 			
         ;    2252 		}
         ;    2253 			
         ;    2254      }
          _0x253:
001191 cfc8      	RJMP _0x24C
         ;    2255 }
          _0x254:
001192 cfff      	RJMP _0x254
          _getchar:
001193 9b5f           sbis usr,rxc
001194 cffe           rjmp _getchar
001195 b1ec           in   r30,udr
001196 9508      	RET
          _putchar:
001197 9b5d           sbis usr,udre
001198 cffe           rjmp _putchar
001199 81e8           ld   r30,y
00119a b9ec           out  udr,r30
00119b 9621      	ADIW R28,1
00119c 9508      	RET
         
          	.DSEG
          __base_y:
0003af      	.BYTE 0x4
          	.equ __lcd_direction=__lcd_port-1 
           	.equ __lcd_cntr_direction=__lcd_cntr_port-1
          	.equ __lcd_pin=__lcd_port-2
           	.equ __lcd_cntr_pin=__lcd_cntr_port-2
          __lcd_x:
0003b3      	.BYTE 0x1
          __lcd_y:
0003b4      	.BYTE 0x1
          __lcd_maxx:
0003b5      	.BYTE 0x1
         
          	.CSEG
          __lcd_ready:
00119d b3a4          in    r26,__lcd_direction
00119e 70af          andi  r26,0xf                 ;set as input
00119f bba4          out   __lcd_direction,r26
         ;    sbi	  __lcd_cntr_direction,__lcd_rs
          ;   sbi	  __lcd_cntr_direction,__lcd_rd
           ;  sbi	  __lcd_cntr_direction,__lcd_en
         ;    sbi   __lcd_cntr_port,__lcd_rd     ;RD=1
0011a0 9896          cbi   __lcd_cntr_port,__lcd_rs     ;RS=0
          __lcd_busy:
0011a1 d00d          rcall __lcd_delay
         ;    rcall __long_delay
         ;    sbi   __lcd_cntr_port,__lcd_en ;EN=1
         ;    rcall __lcd_delay
         ;    sbic  __lcd_pin,__lcd_busy_flag
         ;    rjmp  __lcd_busy
         ;    cbi   __lcd_cntr_port,__lcd_en ;EN=0
0011a2   +  	__DELAY_USB 13
0011a5   +  	__DELAY_USB 107
0011a8 9508      	RET
          __lcd_write_nibble:
0011a9 7fa0          andi  r26,0xf0
0011aa 2bab          or    r26,r27
0011ab bba5          out   __lcd_port,r26          ;write
0011ac 9a97          sbi   __lcd_cntr_port,__lcd_en ;EN=1
0011ad d001          rcall __lcd_delay
0011ae 9897          cbi   __lcd_cntr_port,__lcd_en ;EN=0
          __lcd_delay:
0011af 0000          nop
0011b0 0000          nop
0011b1 0000          nop
0011b2 0000          nop
0011b3 0000          nop
0011b4 0000          nop
0011b5 9508          ret
          __lcd_write_data:
         ;    cbi  __lcd_cntr_port,__lcd_rd 	  ;RD=0
0011b6 b3a4          in    r26,__lcd_direction
0011b7 6fa0          ori   r26,0xf0                ;set as output
0011b8 bba4          out   __lcd_direction,r26 
0011b9 9a8e          sbi   __lcd_cntr_direction,__lcd_rs
         ;    sbi   __lcd_cntr_direction,__lcd_rd
0011ba 9a8f          sbi   __lcd_cntr_direction,__lcd_en
0011bb b3b5          in    r27,__lcd_port
0011bc 70bf          andi  r27,0xf
0011bd 81a8          ld    r26,y
0011be dfea          rcall __lcd_write_nibble      ;RD=0, write MSN
0011bf 81a8          ld    r26,y
0011c0 95a2          swap  r26
0011c1 dfe7          rcall __lcd_write_nibble      ;write LSN
          ;   sbi   __lcd_cntr_port,__lcd_rd     ;RD=1
0011c2 9621      	ADIW R28,1
0011c3 9508      	RET
          _lcd_write_byte:
0011c4 940e 119d 	CALL __lcd_ready
0011c6 81e9      	LDD  R30,Y+1
0011c7 940e 159e 	CALL SUBOPT_0x60
0011c9 9a96          sbi   __lcd_cntr_port,__lcd_rs     ;RS=1
0011ca 81e8      	LD   R30,Y
0011cb 93ea      	ST   -Y,R30
0011cc 940e 11b6 	CALL __lcd_write_data
0011ce c012      	RJMP _0x257
          _lcd_gotoxy:
0011cf 940e 119d 	CALL __lcd_ready
0011d1 81e8      	LD   R30,Y
0011d2 e0f0      	LDI  R31,0
0011d3 55e1      	SUBI R30,LOW(-__base_y)
0011d4 4ffc      	SBCI R31,HIGH(-__base_y)
0011d5 81e0      	LD   R30,Z
0011d6 81a9      	LDD  R26,Y+1
0011d7 0fea      	ADD  R30,R26
0011d8 93ea      	ST   -Y,R30
0011d9 940e 11b6 	CALL __lcd_write_data
0011db 81e9      	LDD  R30,Y+1
0011dc 93e0 03b3 	STS  __lcd_x,R30
0011de 81e8      	LD   R30,Y
0011df 93e0 03b4 	STS  __lcd_y,R30
          _0x257:
0011e1 9622      	ADIW R28,2
0011e2 9508      	RET
          _lcd_clear:
0011e3 940e 119d 	CALL __lcd_ready
0011e5   +  	__DELAY_USB 107
0011e8 e0ec      	LDI  R30,LOW(12)
0011e9 940e 159e 	CALL SUBOPT_0x60
0011eb   +  	__DELAY_USB 107
0011ee e0e1      	LDI  R30,LOW(1)
0011ef 93ea      	ST   -Y,R30
0011f0 940e 11b6 	CALL __lcd_write_data
0011f2 e0e0      	LDI  R30,LOW(0)
0011f3 93e0 03b4 	STS  __lcd_y,R30
0011f5 93e0 03b3 	STS  __lcd_x,R30
0011f7 9508      	RET
          _lcd_putchar:
0011f8 93ef          push r30
0011f9 93ff          push r31
0011fa 81a8          ld   r26,y
0011fb 9468          set
0011fc 30aa          cpi  r26,10
0011fd f061          breq __lcd_putchar1
0011fe 94e8          clt
0011ff 91e0 03b3 	LDS  R30,__lcd_x
001201 5fef      	SUBI R30,-LOW(1)
001202 93e0 03b3 	STS  __lcd_x,R30
001204 91e0 03b5 	LDS  R30,__lcd_maxx
001206 91a0 03b3 	LDS  R26,__lcd_x
001208 17ea      	CP   R30,R26
001209 f468      	BRSH _0x256
          	__lcd_putchar1:
00120a 91e0 03b4 	LDS  R30,__lcd_y
00120c 5fef      	SUBI R30,-LOW(1)
00120d 93e0 03b4 	STS  __lcd_y,R30
00120f e0e0      	LDI  R30,LOW(0)
001210 93ea      	ST   -Y,R30
001211 91e0 03b4 	LDS  R30,__lcd_y
001213 93ea      	ST   -Y,R30
001214 940e 11cf 	CALL _lcd_gotoxy
001216 f02e      	brts __lcd_putchar0
          _0x256:
001217 df85          rcall __lcd_ready
001218 9a96          sbi  __lcd_cntr_port,__lcd_rs ;RS=1
001219 81a8          ld   r26,y
00121a 93aa          st   -y,r26
00121b df9a          rcall __lcd_write_data
          __lcd_putchar0:
00121c 91ff          pop  r31
00121d 91ef          pop  r30
00121e 9621      	ADIW R28,1
00121f 9508      	RET
          _lcd_puts:
001220 81f9          ldd  r31,y+1
001221 81e8          ld   r30,y
          __lcd_puts0:
001222 91a1          ld   r26,z+
001223 23aa          tst  r26
001224 f019          breq __lcd_puts1
001225 93aa          st   -y,r26    
001226 dfd1          rcall _lcd_putchar
001227 cffa          rjmp __lcd_puts0
          __lcd_puts1:
001228 9622      	ADIW R28,2
001229 9508      	RET
          __long_delay:
00122a 27aa          clr   r26
00122b 27bb          clr   r27
          __long_delay0:
00122c 9711          sbiw  r26,1         ;2 cycles
00122d f7f1          brne  __long_delay0 ;2 cycles
00122e 9508      	RET
          _lcd_init:
00122f 9897          cbi   __lcd_cntr_port,__lcd_en ;EN=0
001230 9896          cbi   __lcd_cntr_port,__lcd_rs     ;RS=0
001231 81e8      	LD   R30,Y
001232 93e0 03b5 	STS  __lcd_maxx,R30
001234 58e0      	SUBI R30,-LOW(128)
001235   +  	__PUTB1MN __base_y,2
001237 81e8      	LD   R30,Y
001238 54e0      	SUBI R30,-LOW(192)
001239   +  	__PUTB1MN __base_y,3
00123b d367      	RCALL SUBOPT_0x61
00123c d366      	RCALL SUBOPT_0x61
00123d d365      	RCALL SUBOPT_0x61
00123e 940e 122a 	CALL __long_delay
001240 e2e0      	LDI  R30,LOW(32)
001241 d367      	RCALL SUBOPT_0x62
001242 e2e8      	LDI  R30,LOW(40)
001243 d365      	RCALL SUBOPT_0x62
001244 e0e6      	LDI  R30,LOW(6)
001245 d363      	RCALL SUBOPT_0x62
001246 940e 11e3 	CALL _lcd_clear
001248 e0e2      	LDI  R30,LOW(2)
001249 e0f0      	LDI  R31,HIGH(2)
00124a 93fa      	ST   -Y,R31
00124b 93ea      	ST   -Y,R30
00124c 940e 15ba 	CALL _delay_ms
00124e 9621      	ADIW R28,1
00124f 9508      	RET
         
         ;OPTIMIZER ADDED SUBROUTINE, CALLED 2 TIMES
          SUBOPT_0x0:
001250 01df      	MOVW R26,R30
001251 81ea      	LDD  R30,Y+2
001252 81fb      	LDD  R31,Y+2+1
001253 17ae      	CP   R26,R30
001254 07bf      	CPC  R27,R31
001255 9508      	RET
         
         ;OPTIMIZER ADDED SUBROUTINE, CALLED 2 TIMES
          SUBOPT_0x1:
001256 01df      	MOVW R26,R30
001257 81e8      	LD   R30,Y
001258 81f9      	LDD  R31,Y+1
001259 17ea      	CP   R30,R26
00125a 07fb      	CPC  R31,R27
00125b 9508      	RET
         
         ;OPTIMIZER ADDED SUBROUTINE, CALLED 3 TIMES
          SUBOPT_0x2:
00125c 81e8      	LD   R30,Y
00125d 81a9      	LDD  R26,Y+1
00125e 81ba      	LDD  R27,Y+1+1
00125f e0f0      	LDI  R31,0
001260 0fae      	ADD  R26,R30
001261 1fbf      	ADC  R27,R31
001262 9508      	RET
         
         ;OPTIMIZER ADDED SUBROUTINE, CALLED 4 TIMES
          SUBOPT_0x3:
001263 81e8      	LD   R30,Y
001264 e1a9      	LDI  R26,LOW(_wrk_state)
001265 e0b0      	LDI  R27,HIGH(_wrk_state)
001266 e0f0      	LDI  R31,0
001267 0fee      	LSL  R30
001268 1fff      	ROL  R31
001269 0fae      	ADD  R26,R30
00126a 1fbf      	ADC  R27,R31
00126b 9508      	RET
         
         ;OPTIMIZER ADDED SUBROUTINE, CALLED 3 TIMES
          SUBOPT_0x4:
00126c 81e8      	LD   R30,Y
00126d e1a1      	LDI  R26,LOW(_ee_time_mode)
00126e e0b0      	LDI  R27,HIGH(_ee_time_mode)
00126f e0f0      	LDI  R31,0
001270 0fee      	LSL  R30
001271 1fff      	ROL  R31
001272 0fae      	ADD  R26,R30
001273 1fbf      	ADC  R27,R31
001274 9508      	RET
         
         ;OPTIMIZER ADDED SUBROUTINE, CALLED 6 TIMES
          SUBOPT_0x5:
001275 81e8      	LD   R30,Y
001276 e0ad      	LDI  R26,LOW(_wrk_time_cnt_flag)
001277 e0b3      	LDI  R27,HIGH(_wrk_time_cnt_flag)
001278 e0f0      	LDI  R31,0
001279 0fee      	LSL  R30
00127a 1fff      	ROL  R31
00127b 0fae      	ADD  R26,R30
00127c 1fbf      	ADC  R27,R31
00127d 9508      	RET
         
         ;OPTIMIZER ADDED SUBROUTINE, CALLED 3 TIMES
          SUBOPT_0x6:
00127e 81e8      	LD   R30,Y
00127f efad      	LDI  R26,LOW(_wrk_time_cnt)
001280 e0b2      	LDI  R27,HIGH(_wrk_time_cnt)
001281 e0f0      	LDI  R31,0
001282 0fee      	LSL  R30
001283 1fff      	ROL  R31
001284 0fea      	ADD  R30,R26
001285 1ffb      	ADC  R31,R27
001286 9508      	RET
         
         ;OPTIMIZER ADDED SUBROUTINE, CALLED 7 TIMES
          SUBOPT_0x7:
001287 e0a9      	LDI  R26,LOW(_ee_wrk_time)
001288 e0b0      	LDI  R27,HIGH(_ee_wrk_time)
001289 e0f0      	LDI  R31,0
00128a 0fee      	LSL  R30
00128b 1fff      	ROL  R31
00128c 0fae      	ADD  R26,R30
00128d 1fbf      	ADC  R27,R31
00128e 940e 16b0 	CALL __EEPROMRDW
001290 9508      	RET
         
         ;OPTIMIZER ADDED SUBROUTINE, CALLED 5 TIMES
          SUBOPT_0x8:
001291 93fa      	ST   -Y,R31
001292 93ea      	ST   -Y,R30
001293 e0e1      	LDI  R30,LOW(1)
001294 e0f0      	LDI  R31,HIGH(1)
001295 93fa      	ST   -Y,R31
001296 93ea      	ST   -Y,R30
001297 ede0      	LDI  R30,LOW(720)
001298 e0f2      	LDI  R31,HIGH(720)
001299 93fa      	ST   -Y,R31
00129a 93ea      	ST   -Y,R30
00129b 9508      	RET
         
         ;OPTIMIZER ADDED SUBROUTINE, CALLED 7 TIMES
          SUBOPT_0x9:
00129c 81e8      	LD   R30,Y
00129d e0a5      	LDI  R26,LOW(_wrk_time_cnt_sec)
00129e e0b3      	LDI  R27,HIGH(_wrk_time_cnt_sec)
00129f e0f0      	LDI  R31,0
0012a0 0fee      	LSL  R30
0012a1 1fff      	ROL  R31
0012a2 0fae      	ADD  R26,R30
0012a3 1fbf      	ADC  R27,R31
0012a4 9508      	RET
         
         ;OPTIMIZER ADDED SUBROUTINE, CALLED 2 TIMES
          SUBOPT_0xA:
0012a5 e7e8      	LDI  R30,LOW(120)
0012a6 e0f0      	LDI  R31,HIGH(120)
0012a7 93ed      	ST   X+,R30
0012a8 93fc      	ST   X,R31
0012a9 81e8      	LD   R30,Y
0012aa 9508      	RET
         
         ;OPTIMIZER ADDED SUBROUTINE, CALLED 3 TIMES
          SUBOPT_0xB:
0012ab e2a1      	LDI  R26,LOW(_ee_wrk_time_cnt_5)
0012ac e0b0      	LDI  R27,HIGH(_ee_wrk_time_cnt_5)
0012ad e0f0      	LDI  R31,0
0012ae 0fee      	LSL  R30
0012af 1fff      	ROL  R31
0012b0 9508      	RET
         
         ;OPTIMIZER ADDED SUBROUTINE, CALLED 6 TIMES
          SUBOPT_0xC:
0012b1 81e8      	LD   R30,Y
0012b2 efad      	LDI  R26,LOW(_wrk_time_cnt)
0012b3 e0b2      	LDI  R27,HIGH(_wrk_time_cnt)
0012b4 e0f0      	LDI  R31,0
0012b5 0fee      	LSL  R30
0012b6 1fff      	ROL  R31
0012b7 0fae      	ADD  R26,R30
0012b8 1fbf      	ADC  R27,R31
0012b9 9508      	RET
         
         ;OPTIMIZER ADDED SUBROUTINE, CALLED 3 TIMES
          SUBOPT_0xD:
0012ba 81a8      	LD   R26,Y
0012bb e0b0      	LDI  R27,0
0012bc 5ba2      	SUBI R26,LOW(-_cnt_block)
0012bd 4fbc      	SBCI R27,HIGH(-_cnt_block)
0012be 9508      	RET
         
         ;OPTIMIZER ADDED SUBROUTINE, CALLED 3 TIMES
          SUBOPT_0xE:
0012bf 81e8      	LD   R30,Y
0012c0 e0f0      	LDI  R31,0
0012c1 5be2      	SUBI R30,LOW(-_cnt_block)
0012c2 4ffc      	SBCI R31,HIGH(-_cnt_block)
0012c3 81e0      	LD   R30,Z
0012c4 30e0      	CPI  R30,0
0012c5 9508      	RET
         
         ;OPTIMIZER ADDED SUBROUTINE, CALLED 2 TIMES
          SUBOPT_0xF:
0012c6 81e8      	LD   R30,Y
0012c7 e2a6      	LDI  R26,LOW(_temper)
0012c8 e0b3      	LDI  R27,HIGH(_temper)
0012c9 e0f0      	LDI  R31,0
0012ca 0fee      	LSL  R30
0012cb 1fff      	ROL  R31
0012cc 0fae      	ADD  R26,R30
0012cd 1fbf      	ADC  R27,R31
0012ce 940e 169b 	CALL __GETW1P
0012d0 9508      	RET
         
         ;OPTIMIZER ADDED SUBROUTINE, CALLED 2 TIMES
          SUBOPT_0x10:
0012d1 81e8      	LD   R30,Y
0012d2 e2a9      	LDI  R26,LOW(_t_ust)
0012d3 e0b0      	LDI  R27,HIGH(_t_ust)
0012d4 e0f0      	LDI  R31,0
0012d5 0fee      	LSL  R30
0012d6 1fff      	ROL  R31
0012d7 0fae      	ADD  R26,R30
0012d8 1fbf      	ADC  R27,R31
0012d9 940e 16b0 	CALL __EEPROMRDW
0012db 9508      	RET
         
         ;OPTIMIZER ADDED SUBROUTINE, CALLED 3 TIMES
          SUBOPT_0x11:
0012dc 81a8      	LD   R26,Y
0012dd e0b0      	LDI  R27,0
0012de 5baa      	SUBI R26,LOW(-_out_st)
0012df 4fbc      	SBCI R27,HIGH(-_out_st)
0012e0 9508      	RET
         
         ;OPTIMIZER ADDED SUBROUTINE, CALLED 2 TIMES
          SUBOPT_0x12:
0012e1 81e8      	LD   R30,Y
0012e2 e0f0      	LDI  R31,0
0012e3 5bea      	SUBI R30,LOW(-_out_st)
0012e4 4ffc      	SBCI R31,HIGH(-_out_st)
0012e5 81e0      	LD   R30,Z
0012e6 9508      	RET
         
         ;OPTIMIZER ADDED SUBROUTINE, CALLED 2 TIMES
          SUBOPT_0x13:
0012e7 81e8      	LD   R30,Y
0012e8 e0f0      	LDI  R31,0
0012e9 5be6      	SUBI R30,LOW(-_out_st_old)
0012ea 4ffc      	SBCI R31,HIGH(-_out_st_old)
0012eb 9508      	RET
         
         ;OPTIMIZER ADDED SUBROUTINE, CALLED 2 TIMES
          SUBOPT_0x14:
0012ec 940e 169b 	CALL __GETW1P
0012ee 9731      	SBIW R30,1
0012ef 93ed      	ST   X+,R30
0012f0 93fc      	ST   X,R31
0012f1 9508      	RET
         
         ;OPTIMIZER ADDED SUBROUTINE, CALLED 3 TIMES
          SUBOPT_0x15:
0012f2 efad      	LDI  R26,LOW(_wrk_time_cnt)
0012f3 e0b2      	LDI  R27,HIGH(_wrk_time_cnt)
0012f4 e0f0      	LDI  R31,0
0012f5 0fee      	LSL  R30
0012f6 1fff      	ROL  R31
0012f7 0fae      	ADD  R26,R30
0012f8 1fbf      	ADC  R27,R31
0012f9 9508      	RET
         
         ;OPTIMIZER ADDED SUBROUTINE, CALLED 3 TIMES
          SUBOPT_0x16:
0012fa 2de9      	MOV  R30,R9
0012fb e5a3      	LDI  R26,LOW(_adc_bank)
0012fc e0b3      	LDI  R27,HIGH(_adc_bank)
0012fd e0f0      	LDI  R31,0
0012fe 9508      	RET
         
         ;OPTIMIZER ADDED SUBROUTINE, CALLED 40 TIMES
          SUBOPT_0x17:
0012ff e0f0      	LDI  R31,0
001300 0fee      	LSL  R30
001301 1fff      	ROL  R31
001302 0fea      	ADD  R30,R26
001303 1ffb      	ADC  R31,R27
001304 9508      	RET
         
         ;OPTIMIZER ADDED SUBROUTINE, CALLED 2 TIMES
          SUBOPT_0x18:
001305 0fae      	ADD  R26,R30
001306 1fbf      	ADC  R27,R31
001307 2fe1      	MOV  R30,R17
001308 e0f0      	LDI  R31,0
001309 0fee      	LSL  R30
00130a 1fff      	ROL  R31
00130b 0fae      	ADD  R26,R30
00130c 1fbf      	ADC  R27,R31
00130d 9508      	RET
         
         ;OPTIMIZER ADDED SUBROUTINE, CALLED 4 TIMES
          SUBOPT_0x19:
00130e ebee      	LDI  R30,LOW(_char2*2)
00130f e0f0      	LDI  R31,HIGH(_char2*2)
001310 93fa      	ST   -Y,R31
001311 93ea      	ST   -Y,R30
001312 e0e3      	LDI  R30,LOW(3)
001313 93ea      	ST   -Y,R30
001314 940c 0408 	JMP  _define_char
         
         ;OPTIMIZER ADDED SUBROUTINE, CALLED 4 TIMES
          SUBOPT_0x1A:
001316 ece6      	LDI  R30,LOW(_char2_*2)
001317 e0f0      	LDI  R31,HIGH(_char2_*2)
001318 93fa      	ST   -Y,R31
001319 93ea      	ST   -Y,R30
00131a e0e3      	LDI  R30,LOW(3)
00131b 93ea      	ST   -Y,R30
00131c 940c 0408 	JMP  _define_char
         
         ;OPTIMIZER ADDED SUBROUTINE, CALLED 2 TIMES
          SUBOPT_0x1B:
00131e ecee      	LDI  R30,LOW(_char2__*2)
00131f e0f0      	LDI  R31,HIGH(_char2__*2)
001320 93fa      	ST   -Y,R31
001321 93ea      	ST   -Y,R30
001322 e0e3      	LDI  R30,LOW(3)
001323 93ea      	ST   -Y,R30
001324 940c 0408 	JMP  _define_char
         
         ;OPTIMIZER ADDED SUBROUTINE, CALLED 45 TIMES
          SUBOPT_0x1C:
001326 93ea      	ST   -Y,R30
001327 e0e0      	LDI  R30,LOW(0)
001328 93ea      	ST   -Y,R30
001329 9508      	RET
         
         ;OPTIMIZER ADDED SUBROUTINE, CALLED 4 TIMES
          SUBOPT_0x1D:
00132a 2766      	CLR  R22
00132b 2777      	CLR  R23
00132c   +  	__PUTD1S 7
001330   +  	__GETD2S 7
001334   +  	__CPD2N 0xC8
00133b 9508      	RET
         
         ;OPTIMIZER ADDED SUBROUTINE, CALLED 4 TIMES
          SUBOPT_0x1E:
00133c   +  	__GETD2S 7
001340   +  	__GETD1N 0x320
001344 940e 16d7 	CALL __CPD12
001346 9508      	RET
         
         ;OPTIMIZER ADDED SUBROUTINE, CALLED 4 TIMES
          SUBOPT_0x1F:
001347 940e 16b0 	CALL __EEPROMRDW
001349 5fe0      	SUBI R30,LOW(-10000)
00134a 4df8      	SBCI R31,HIGH(-10000)
00134b 940e 15ed 	CALL __CWD1
00134d   +  	__GETD2S 7
001351 940e 1621 	CALL __MULD12
001353   +  	__PUTD1S 7
001357   +  	__GETD2S 7
00135b   +  	__GETD1N 0x9C4000
00135f 940e 15cb 	CALL __SUBD12
001361   +  	__PUTD1S 3
001365   +  	__GETD2S 3
001369   +  	__GETD1N 0x2710
00136d 940e 1664 	CALL __DIVD21
00136f   +  	__PUTD1S 3
001373   +  	__GETD2S 7
001377 940e 1664 	CALL __DIVD21
001379   +  	__PUTD1S 7
00137d eeee      	LDI  R30,LOW(_temper_table*2)
00137e e0f0      	LDI  R31,HIGH(_temper_table*2)
00137f 940e 169f 	CALL __GETW1PF
001381 81af      	LDD  R26,Y+7
001382 85b8      	LDD  R27,Y+7+1
001383 17ea      	CP   R30,R26
001384 07fb      	CPC  R31,R27
001385 9508      	RET
         
         ;OPTIMIZER ADDED SUBROUTINE, CALLED 8 TIMES
          SUBOPT_0x20:
001386 940e 169f 	CALL __GETW1PF
001388 81af      	LDD  R26,Y+7
001389 85b8      	LDD  R27,Y+7+1
00138a 17ae      	CP   R26,R30
00138b 07bf      	CPC  R27,R31
00138c 9508      	RET
         
         ;OPTIMIZER ADDED SUBROUTINE, CALLED 12 TIMES
          SUBOPT_0x21:
00138d eeae      	LDI  R26,LOW(_temper_table*2)
00138e e0b0      	LDI  R27,HIGH(_temper_table*2)
00138f 2fe2      	MOV  R30,R18
001390 cf6e      	RJMP SUBOPT_0x17
         
         ;OPTIMIZER ADDED SUBROUTINE, CALLED 4 TIMES
          SUBOPT_0x22:
001391 940e 169f 	CALL __GETW1PF
001393 81af      	LDD  R26,Y+7
001394 85b8      	LDD  R27,Y+7+1
001395 17ea      	CP   R30,R26
001396 07fb      	CPC  R31,R27
001397 9508      	RET
         
         ;OPTIMIZER ADDED SUBROUTINE, CALLED 4 TIMES
          SUBOPT_0x23:
001398 940e 16a3 	CALL __SWAPD12
00139a 940e 15cb 	CALL __SUBD12
00139c   +  	__PUTD1S 3
0013a0 cfec      	RJMP SUBOPT_0x21
         
         ;OPTIMIZER ADDED SUBROUTINE, CALLED 4 TIMES
          SUBOPT_0x24:
0013a1 940e 169f 	CALL __GETW1PF
0013a3 940e 15ed 	CALL __CWD1
0013a5   +  	__GETD2S 7
0013a9 940e 16a3 	CALL __SWAPD12
0013ab 940e 15cb 	CALL __SUBD12
0013ad   +  	__PUTD1S 7
0013b1   +  	__GETD2S 7
0013b5   +  	__GETD1N 0xA
0013b9 940e 1621 	CALL __MULD12
0013bb   +  	__PUTD1S 7
0013bf   +  	__GETD1S 3
0013c3   +  	__GETD2S 7
0013c7 940e 1664 	CALL __DIVD21
0013c9   +  	__PUTD1S 7
0013cd 2fa2      	MOV  R26,R18
0013ce e0ea      	LDI  R30,LOW(10)
0013cf 9fea      	MUL  R30,R26
0013d0 2de0      	MOV  R30,R0
0013d1 27ff      	CLR  R31
0013d2 2766      	CLR  R22
0013d3 2777      	CLR  R23
0013d4   +  	__GETD2S 7
0013d8 940e 15c6 	CALL __ADDD12
0013da   +  	__PUTD1S 7
0013de   +  	__SUBD1N 50
0013e2   +  	__PUTD1S 7
0013e6 81ef      	LDD  R30,Y+7
0013e7 85f8      	LDD  R31,Y+7+1
0013e8 9508      	RET
         
         ;OPTIMIZER ADDED SUBROUTINE, CALLED 7 TIMES
          SUBOPT_0x25:
0013e9 2fe0      	MOV  R30,R16
0013ea e0f0      	LDI  R31,0
0013eb 55ee      	SUBI R30,LOW(-_lcd_buffer)
0013ec 4ffd      	SBCI R31,HIGH(-_lcd_buffer)
0013ed 9508      	RET
         
         ;OPTIMIZER ADDED SUBROUTINE, CALLED 4 TIMES
          SUBOPT_0x26:
0013ee 2fe0      	MOV  R30,R16
0013ef 50e1      	SUBI R30,LOW(1)
0013f0 e0f0      	LDI  R31,0
0013f1 59e3      	SUBI R30,LOW(-_dig)
0013f2 4ffd      	SBCI R31,HIGH(-_dig)
0013f3 9508      	RET
         
         ;OPTIMIZER ADDED SUBROUTINE, CALLED 2 TIMES
          SUBOPT_0x27:
0013f4 931a      	ST   -Y,R17
0013f5 930a      	ST   -Y,R16
0013f6 81ec      	LDD  R30,Y+4
0013f7 81fd      	LDD  R31,Y+4+1
0013f8 93fa      	ST   -Y,R31
0013f9 93ea      	ST   -Y,R30
0013fa 940e 065b 	CALL _bin2bcd_int
0013fc 81ea      	LDD  R30,Y+2
0013fd 5fef      	SUBI R30,-LOW(1)
0013fe 93ea      	ST   -Y,R30
0013ff 940e 067c 	CALL _bcd2lcd_zero
001401 81eb      	LDD  R30,Y+3
001402 9508      	RET
         
         ;OPTIMIZER ADDED SUBROUTINE, CALLED 3 TIMES
          SUBOPT_0x28:
001403 93ea      	ST   -Y,R30
001404 940e 0647 	CALL _find
001406 2f0e      	MOV  R16,R30
001407 9508      	RET
         
         ;OPTIMIZER ADDED SUBROUTINE, CALLED 17 TIMES
          SUBOPT_0x29:
001408 2fe1      	MOV  R30,R17
001409 e0f0      	LDI  R31,0
00140a 59e3      	SUBI R30,LOW(-_dig)
00140b 4ffd      	SBCI R31,HIGH(-_dig)
00140c 81e0      	LD   R30,Z
00140d 9508      	RET
         
         ;OPTIMIZER ADDED SUBROUTINE, CALLED 2 TIMES
          SUBOPT_0x2A:
00140e 2fa0      	MOV  R26,R16
00140f e0b0      	LDI  R27,0
001410 55ae      	SUBI R26,LOW(-_lcd_buffer)
001411 4fbd      	SBCI R27,HIGH(-_lcd_buffer)
001412 e2ee      	LDI  R30,LOW(46)
001413 93ec      	ST   X,R30
001414 2fe0      	MOV  R30,R16
001415 50e1      	SUBI R30,LOW(1)
001416 e0f0      	LDI  R31,0
001417 55ee      	SUBI R30,LOW(-_lcd_buffer)
001418 4ffd      	SBCI R31,HIGH(-_lcd_buffer)
001419 9508      	RET
         
         ;OPTIMIZER ADDED SUBROUTINE, CALLED 4 TIMES
          SUBOPT_0x2B:
00141a 2fe0      	MOV  R30,R16
00141b 50e1      	SUBI R30,LOW(1)
00141c e0f0      	LDI  R31,0
00141d 55ee      	SUBI R30,LOW(-_lcd_buffer)
00141e 4ffd      	SBCI R31,HIGH(-_lcd_buffer)
00141f 9508      	RET
         
         ;OPTIMIZER ADDED SUBROUTINE, CALLED 2 TIMES
          SUBOPT_0x2C:
001420 2fe1      	MOV  R30,R17
001421 5fef      	SUBI R30,-LOW(1)
001422 e0f0      	LDI  R31,0
001423 59e3      	SUBI R30,LOW(-_dig)
001424 4ffd      	SBCI R31,HIGH(-_dig)
001425 81e0      	LD   R30,Z
001426 32e0      	CPI  R30,LOW(0x20)
001427 9508      	RET
         
         ;OPTIMIZER ADDED SUBROUTINE, CALLED 2 TIMES
          SUBOPT_0x2D:
001428 2fa0      	MOV  R26,R16
001429 e0b0      	LDI  R27,0
00142a 55ae      	SUBI R26,LOW(-_lcd_buffer)
00142b 4fbd      	SBCI R27,HIGH(-_lcd_buffer)
00142c 9508      	RET
         
         ;OPTIMIZER ADDED SUBROUTINE, CALLED 2 TIMES
          SUBOPT_0x2E:
00142d 81eb      	LDD  R30,Y+3
00142e 81fc      	LDD  R31,Y+3+1
00142f 91e4      	LPM  R30,Z
001430 30e0      	CPI  R30,0
001431 9508      	RET
         
         ;OPTIMIZER ADDED SUBROUTINE, CALLED 2 TIMES
          SUBOPT_0x2F:
001432 81eb      	LDD  R30,Y+3
001433 81fc      	LDD  R31,Y+3+1
001434 9631      	ADIW R30,1
001435 83eb      	STD  Y+3,R30
001436 83fc      	STD  Y+3+1,R31
001437 9731      	SBIW R30,1
001438 91e4      	LPM  R30,Z
001439 9508      	RET
         
         ;OPTIMIZER ADDED SUBROUTINE, CALLED 2 TIMES
          SUBOPT_0x30:
00143a 91e0 0260 	LDS  R30,_ptr_ram
00143c 91f0 0261 	LDS  R31,_ptr_ram+1
00143e 9631      	ADIW R30,1
00143f 93e0 0260 	STS  _ptr_ram,R30
001441 93f0 0261 	STS  _ptr_ram+1,R31
001443 9731      	SBIW R30,1
001444 9508      	RET
         
         ;OPTIMIZER ADDED SUBROUTINE, CALLED 13 TIMES
          SUBOPT_0x31:
001445 93fa      	ST   -Y,R31
001446 93ea      	ST   -Y,R30
001447 e2e1      	LDI  R30,LOW(33)
001448 cedd      	RJMP SUBOPT_0x1C
         
         ;OPTIMIZER ADDED SUBROUTINE, CALLED 8 TIMES
          SUBOPT_0x32:
001449 93fa      	ST   -Y,R31
00144a 93ea      	ST   -Y,R30
00144b e2e1      	LDI  R30,LOW(33)
00144c 93ea      	ST   -Y,R30
00144d 9508      	RET
         
         ;OPTIMIZER ADDED SUBROUTINE, CALLED 4 TIMES
          SUBOPT_0x33:
00144e efef      	LDI  R30,LOW(255)
00144f 93ea      	ST   -Y,R30
001450 940c 07c0 	JMP  _sub_bgnd
         
         ;OPTIMIZER ADDED SUBROUTINE, CALLED 4 TIMES
          SUBOPT_0x34:
001452 e3ec      	LDI  R30,LOW(60)
001453 e0f0      	LDI  R31,HIGH(60)
001454 940e 166c 	CALL __MODW21
001456 cfee      	RJMP SUBOPT_0x31
         
         ;OPTIMIZER ADDED SUBROUTINE, CALLED 4 TIMES
          SUBOPT_0x35:
001457 e3ec      	LDI  R30,LOW(60)
001458 e0f0      	LDI  R31,HIGH(60)
001459 940e 1639 	CALL __DIVW21
00145b 93fa      	ST   -Y,R31
00145c 93ea      	ST   -Y,R30
00145d e2e3      	LDI  R30,LOW(35)
00145e cec7      	RJMP SUBOPT_0x1C
         
         ;OPTIMIZER ADDED SUBROUTINE, CALLED 12 TIMES
          SUBOPT_0x36:
00145f e4e0      	LDI  R30,LOW(64)
001460 93ea      	ST   -Y,R30
001461 940e 0647 	CALL _find
001463 e0f0      	LDI  R31,0
001464 55ee      	SUBI R30,LOW(-_lcd_buffer)
001465 4ffd      	SBCI R31,HIGH(-_lcd_buffer)
001466 01df      	MOVW R26,R30
001467 9508      	RET
         
         ;OPTIMIZER ADDED SUBROUTINE, CALLED 4 TIMES
          SUBOPT_0x37:
001468 efec      	LDI  R30,LOW(252)
001469 93ea      	ST   -Y,R30
00146a 940c 07c0 	JMP  _sub_bgnd
         
         ;OPTIMIZER ADDED SUBROUTINE, CALLED 7 TIMES
          SUBOPT_0x38:
00146c e6e7      	LDI  R30,LOW(103)
00146d 93ea      	ST   -Y,R30
00146e 940e 0647 	CALL _find
001470 e0f0      	LDI  R31,0
001471 55ee      	SUBI R30,LOW(-_lcd_buffer)
001472 4ffd      	SBCI R31,HIGH(-_lcd_buffer)
001473 01df      	MOVW R26,R30
001474 e0e2      	LDI  R30,LOW(2)
001475 93ec      	ST   X,R30
001476 9508      	RET
         
         ;OPTIMIZER ADDED SUBROUTINE, CALLED 6 TIMES
          SUBOPT_0x39:
001477 93fa      	ST   -Y,R31
001478 93ea      	ST   -Y,R30
001479 e4e0      	LDI  R30,LOW(64)
00147a ceab      	RJMP SUBOPT_0x1C
         
         ;OPTIMIZER ADDED SUBROUTINE, CALLED 4 TIMES
          SUBOPT_0x3A:
00147b 93fa      	ST   -Y,R31
00147c 93ea      	ST   -Y,R30
00147d e2e3      	LDI  R30,LOW(35)
00147e cea7      	RJMP SUBOPT_0x1C
         
         ;OPTIMIZER ADDED SUBROUTINE, CALLED 4 TIMES
          SUBOPT_0x3B:
00147f 93fa      	ST   -Y,R31
001480 93ea      	ST   -Y,R30
001481 e2e4      	LDI  R30,LOW(36)
001482 cea3      	RJMP SUBOPT_0x1C
         
         ;OPTIMIZER ADDED SUBROUTINE, CALLED 2 TIMES
          SUBOPT_0x3C:
001483 2deb      	MOV  R30,R11
001484 50e1      	SUBI R30,LOW(1)
001485 16de      	CP   R13,R30
001486 9508      	RET
         
         ;OPTIMIZER ADDED SUBROUTINE, CALLED 2 TIMES
          SUBOPT_0x3D:
001487 2deb      	MOV  R30,R11
001488 50e1      	SUBI R30,LOW(1)
001489 2ede      	MOV  R13,R30
00148a 9508      	RET
         
         ;OPTIMIZER ADDED SUBROUTINE, CALLED 2 TIMES
          SUBOPT_0x3E:
00148b 2ded      	MOV  R30,R13
00148c e0f0      	LDI  R31,0
00148d 01de      	MOVW R26,R28
00148e 9613      	ADIW R26,3
00148f 0fee      	LSL  R30
001490 1fff      	ROL  R31
001491 0fae      	ADD  R26,R30
001492 1fbf      	ADC  R27,R31
001493 940e 169b 	CALL __GETW1P
001495 93fa      	ST   -Y,R31
001496 93ea      	ST   -Y,R30
001497 2ded      	MOV  R30,R13
001498 5fef      	SUBI R30,-LOW(1)
001499 e0f0      	LDI  R31,0
00149a 01de      	MOVW R26,R28
00149b 9615      	ADIW R26,5
00149c 0fee      	LSL  R30
00149d 1fff      	ROL  R31
00149e 0fae      	ADD  R26,R30
00149f 1fbf      	ADC  R27,R31
0014a0 940e 169b 	CALL __GETW1P
0014a2 93fa      	ST   -Y,R31
0014a3 93ea      	ST   -Y,R30
0014a4 940c 07d8 	JMP  _bgnd_par
         
         ;OPTIMIZER ADDED SUBROUTINE, CALLED 3 TIMES
          SUBOPT_0x3F:
0014a6 2dec      	MOV  R30,R12
0014a7 e1a9      	LDI  R26,LOW(_wrk_state)
0014a8 e0b0      	LDI  R27,HIGH(_wrk_state)
0014a9 e0f0      	LDI  R31,0
0014aa 0fee      	LSL  R30
0014ab 1fff      	ROL  R31
0014ac 0fae      	ADD  R26,R30
0014ad 1fbf      	ADC  R27,R31
0014ae 940e 16b0 	CALL __EEPROMRDW
0014b0 30e1      	CPI  R30,LOW(0x1)
0014b1 e0a0      	LDI  R26,HIGH(0x1)
0014b2 07fa      	CPC  R31,R26
0014b3 9508      	RET
         
         ;OPTIMIZER ADDED SUBROUTINE, CALLED 2 TIMES
          SUBOPT_0x40:
0014b4 2dec      	MOV  R30,R12
0014b5 5fef      	SUBI R30,-LOW(1)
0014b6 e0f0      	LDI  R31,0
0014b7 cf8d      	RJMP SUBOPT_0x31
         
         ;OPTIMIZER ADDED SUBROUTINE, CALLED 3 TIMES
          SUBOPT_0x41:
0014b8 2dec      	MOV  R30,R12
0014b9 e2a9      	LDI  R26,LOW(_t_ust)
0014ba e0b0      	LDI  R27,HIGH(_t_ust)
0014bb e0f0      	LDI  R31,0
0014bc 0fee      	LSL  R30
0014bd 1fff      	ROL  R31
0014be 0fae      	ADD  R26,R30
0014bf 1fbf      	ADC  R27,R31
0014c0 940e 16b0 	CALL __EEPROMRDW
0014c2 9508      	RET
         
         ;OPTIMIZER ADDED SUBROUTINE, CALLED 2 TIMES
          SUBOPT_0x42:
0014c3 940e 169b 	CALL __GETW1P
0014c5 01df      	MOVW R26,R30
0014c6 e3ec      	LDI  R30,LOW(60)
0014c7 e0f0      	LDI  R31,HIGH(60)
0014c8 9508      	RET
         
         ;OPTIMIZER ADDED SUBROUTINE, CALLED 2 TIMES
          SUBOPT_0x43:
0014c9 940e 06a6 	CALL _int2lcd
0014cb 2dec      	MOV  R30,R12
0014cc e1a1      	LDI  R26,LOW(_ee_time_mode)
0014cd e0b0      	LDI  R27,HIGH(_ee_time_mode)
0014ce e0f0      	LDI  R31,0
0014cf 0fee      	LSL  R30
0014d0 1fff      	ROL  R31
0014d1 0fae      	ADD  R26,R30
0014d2 1fbf      	ADC  R27,R31
0014d3 940e 16b0 	CALL __EEPROMRDW
0014d5 9730      	SBIW R30,0
0014d6 9508      	RET
         
         ;OPTIMIZER ADDED SUBROUTINE, CALLED 3 TIMES
          SUBOPT_0x44:
0014d7 e0f0      	LDI  R31,0
0014d8 0fee      	LSL  R30
0014d9 1fff      	ROL  R31
0014da 0fae      	ADD  R26,R30
0014db 1fbf      	ADC  R27,R31
0014dc 940e 169b 	CALL __GETW1P
0014de 9508      	RET
         
         ;OPTIMIZER ADDED SUBROUTINE, CALLED 3 TIMES
          SUBOPT_0x45:
0014df e2e5      	LDI  R30,LOW(37)
0014e0 93ea      	ST   -Y,R30
0014e1 940e 0647 	CALL _find
0014e3 e0f0      	LDI  R31,0
0014e4 55ee      	SUBI R30,LOW(-_lcd_buffer)
0014e5 4ffd      	SBCI R31,HIGH(-_lcd_buffer)
0014e6 01df      	MOVW R26,R30
0014e7 9508      	RET
         
         ;OPTIMIZER ADDED SUBROUTINE, CALLED 3 TIMES
          SUBOPT_0x46:
0014e8 2dec      	MOV  R30,R12
0014e9 e0f0      	LDI  R31,0
0014ea 5bee      	SUBI R30,LOW(-_nd)
0014eb 4ffc      	SBCI R31,HIGH(-_nd)
0014ec 81e0      	LD   R30,Z
0014ed 30e0      	CPI  R30,0
0014ee 9508      	RET
         
         ;OPTIMIZER ADDED SUBROUTINE, CALLED 2 TIMES
          SUBOPT_0x47:
0014ef 93ea      	ST   -Y,R30
0014f0 efee      	LDI  R30,LOW(254)
0014f1 93ea      	ST   -Y,R30
0014f2 940c 07c0 	JMP  _sub_bgnd
         
         ;OPTIMIZER ADDED SUBROUTINE, CALLED 2 TIMES
          SUBOPT_0x48:
0014f4 2dec      	MOV  R30,R12
0014f5 e2a6      	LDI  R26,LOW(_temper)
0014f6 e0b3      	LDI  R27,HIGH(_temper)
0014f7 cfdf      	RJMP SUBOPT_0x44
         
         ;OPTIMIZER ADDED SUBROUTINE, CALLED 2 TIMES
          SUBOPT_0x49:
0014f8 e6ef      	LDI  R30,LOW(111)
0014f9 93ea      	ST   -Y,R30
0014fa 940e 0647 	CALL _find
0014fc e0f0      	LDI  R31,0
0014fd 55ee      	SUBI R30,LOW(-_lcd_buffer)
0014fe 4ffd      	SBCI R31,HIGH(-_lcd_buffer)
0014ff 01df      	MOVW R26,R30
001500 9508      	RET
         
         ;OPTIMIZER ADDED SUBROUTINE, CALLED 3 TIMES
          SUBOPT_0x4A:
001501 b3e8      	IN   R30,0x18
001502 6fe8      	ORI  R30,LOW(0xF8)
001503 bbe8      	OUT  0x18,R30
001504 9508      	RET
         
         ;OPTIMIZER ADDED SUBROUTINE, CALLED 2 TIMES
          SUBOPT_0x4B:
001505 91e0 03a5 	LDS  R30,_but_s_G1
001507 91a0 03a4 	LDS  R26,_but_n_G1
001509 17ea      	CP   R30,R26
00150a 9508      	RET
         
         ;OPTIMIZER ADDED SUBROUTINE, CALLED 2 TIMES
          SUBOPT_0x4C:
00150b 91e0 03a8 	LDS  R30,_but_onL_temp_G1
00150d 91a0 03a7 	LDS  R26,_but1_cnt_G1
00150f 17ae      	CP   R26,R30
001510 9508      	RET
         
         ;OPTIMIZER ADDED SUBROUTINE, CALLED 2 TIMES
          SUBOPT_0x4D:
001511 91e0 03a5 	LDS  R30,_but_s_G1
001513 7fee      	ANDI R30,0xFE
001514 2e8e      	MOV  R8,R30
001515 9508      	RET
         
         ;OPTIMIZER ADDED SUBROUTINE, CALLED 2 TIMES
          SUBOPT_0x4E:
001516 e0e1      	LDI  R30,LOW(1)
001517 e0f0      	LDI  R31,HIGH(1)
001518   +  	__PUTW1R 6,7
00151a 24bb      	CLR  R11
00151b 9508      	RET
         
         ;OPTIMIZER ADDED SUBROUTINE, CALLED 2 TIMES
          SUBOPT_0x4F:
00151c e0eb      	LDI  R30,LOW(11)
00151d e0f0      	LDI  R31,HIGH(11)
00151e 93fa      	ST   -Y,R31
00151f 93ea      	ST   -Y,R30
001520 e0e0      	LDI  R30,LOW(0)
001521 93ea      	ST   -Y,R30
001522 e0e4      	LDI  R30,LOW(4)
001523 93ea      	ST   -Y,R30
001524 940c 01ba 	JMP  _gran_char
         
         ;OPTIMIZER ADDED SUBROUTINE, CALLED 5 TIMES
          SUBOPT_0x50:
001526 e0f0      	LDI  R31,0
001527 0fee      	LSL  R30
001528 1fff      	ROL  R31
001529 0fae      	ADD  R26,R30
00152a 1fbf      	ADC  R27,R31
00152b 9508      	RET
         
         ;OPTIMIZER ADDED SUBROUTINE, CALLED 2 TIMES
          SUBOPT_0x51:
00152c e0eb      	LDI  R30,LOW(11)
00152d e0f0      	LDI  R31,HIGH(11)
00152e 93fa      	ST   -Y,R31
00152f 93ea      	ST   -Y,R30
001530 e0e0      	LDI  R30,LOW(0)
001531 93ea      	ST   -Y,R30
001532 e0e7      	LDI  R30,LOW(7)
001533 93ea      	ST   -Y,R30
001534 940c 01ba 	JMP  _gran_char
         
         ;OPTIMIZER ADDED SUBROUTINE, CALLED 3 TIMES
          SUBOPT_0x52:
001536 9631      	ADIW R30,1
001537 940e 16c0 	CALL __EEPROMWRW
001539 9731      	SBIW R30,1
00153a 2dec      	MOV  R30,R12
00153b 9508      	RET
         
         ;OPTIMIZER ADDED SUBROUTINE, CALLED 4 TIMES
          SUBOPT_0x53:
00153c 93fa      	ST   -Y,R31
00153d 93ea      	ST   -Y,R30
00153e e1ee      	LDI  R30,LOW(30)
00153f e0f0      	LDI  R31,HIGH(30)
001540 93fa      	ST   -Y,R31
001541 93ea      	ST   -Y,R30
001542 e8ec      	LDI  R30,LOW(140)
001543 e0f0      	LDI  R31,HIGH(140)
001544 93fa      	ST   -Y,R31
001545 93ea      	ST   -Y,R30
001546 940c 01e9 	JMP  _gran_ee
         
         ;OPTIMIZER ADDED SUBROUTINE, CALLED 5 TIMES
          SUBOPT_0x54:
001548 2dec      	MOV  R30,R12
001549 e2a9      	LDI  R26,LOW(_t_ust)
00154a e0b0      	LDI  R27,HIGH(_t_ust)
00154b cdb3      	RJMP SUBOPT_0x17
         
         ;OPTIMIZER ADDED SUBROUTINE, CALLED 3 TIMES
          SUBOPT_0x55:
00154c 9731      	SBIW R30,1
00154d 940e 16c0 	CALL __EEPROMWRW
00154f 9631      	ADIW R30,1
001550 9508      	RET
         
         ;OPTIMIZER ADDED SUBROUTINE, CALLED 5 TIMES
          SUBOPT_0x56:
001551 2dec      	MOV  R30,R12
001552 e0a9      	LDI  R26,LOW(_ee_wrk_time)
001553 e0b0      	LDI  R27,HIGH(_ee_wrk_time)
001554 cdaa      	RJMP SUBOPT_0x17
         
         ;OPTIMIZER ADDED SUBROUTINE, CALLED 2 TIMES
          SUBOPT_0x57:
001555 01df      	MOVW R26,R30
001556 e0ea      	LDI  R30,LOW(10)
001557 e0f0      	LDI  R31,HIGH(10)
001558 940e 1639 	CALL __DIVW21
00155a 9508      	RET
         
         ;OPTIMIZER ADDED SUBROUTINE, CALLED 2 TIMES
          SUBOPT_0x58:
00155b 2dec      	MOV  R30,R12
00155c e1a1      	LDI  R26,LOW(_ee_time_mode)
00155d e0b0      	LDI  R27,HIGH(_ee_time_mode)
00155e cfc7      	RJMP SUBOPT_0x50
         
         ;OPTIMIZER ADDED SUBROUTINE, CALLED 2 TIMES
          SUBOPT_0x59:
00155f e0ea      	LDI  R30,LOW(10)
001560 e0f0      	LDI  R31,HIGH(10)
001561   +  	__PUTW1R 6,7
001563 24bb      	CLR  R11
001564 9508      	RET
         
         ;OPTIMIZER ADDED SUBROUTINE, CALLED 2 TIMES
          SUBOPT_0x5A:
001565 2dec      	MOV  R30,R12
001566 e0a1      	LDI  R26,LOW(_K_t)
001567 e0b0      	LDI  R27,HIGH(_K_t)
001568 cfbd      	RJMP SUBOPT_0x50
         
         ;OPTIMIZER ADDED SUBROUTINE, CALLED 4 TIMES
          SUBOPT_0x5B:
001569 93fa      	ST   -Y,R31
00156a 93ea      	ST   -Y,R30
00156b e1e8      	LDI  R30,LOW(64536)
00156c effc      	LDI  R31,HIGH(64536)
00156d 93fa      	ST   -Y,R31
00156e 93ea      	ST   -Y,R30
00156f eee8      	LDI  R30,LOW(1000)
001570 e0f3      	LDI  R31,HIGH(1000)
001571 93fa      	ST   -Y,R31
001572 93ea      	ST   -Y,R30
001573 940c 01e9 	JMP  _gran_ee
         
         ;OPTIMIZER ADDED SUBROUTINE, CALLED 5 TIMES
          SUBOPT_0x5C:
001575 2dec      	MOV  R30,R12
001576 e0a1      	LDI  R26,LOW(_K_t)
001577 e0b0      	LDI  R27,HIGH(_K_t)
001578 cd86      	RJMP SUBOPT_0x17
         
         ;OPTIMIZER ADDED SUBROUTINE, CALLED 2 TIMES
          SUBOPT_0x5D:
001579 2466      	CLR  R6
00157a 2477      	CLR  R7
00157b 24bb      	CLR  R11
00157c e0e0      	LDI  R30,0
00157d 93e0 0315 	STS  _nakal_cnt,R30
00157f 93e0 0316 	STS  _nakal_cnt+1,R30
001581 9508      	RET
         
         ;OPTIMIZER ADDED SUBROUTINE, CALLED 2 TIMES
          SUBOPT_0x5E:
001582 e3e2      	LDI  R30,LOW(_Ku)
001583 e0f0      	LDI  R31,HIGH(_Ku)
001584 93fa      	ST   -Y,R31
001585 93ea      	ST   -Y,R30
001586 e6e4      	LDI  R30,LOW(100)
001587 e0f0      	LDI  R31,HIGH(100)
001588 93fa      	ST   -Y,R31
001589 93ea      	ST   -Y,R30
00158a ece8      	LDI  R30,LOW(200)
00158b e0f0      	LDI  R31,HIGH(200)
00158c 93fa      	ST   -Y,R31
00158d 93ea      	ST   -Y,R30
00158e 940c 01e9 	JMP  _gran_ee
         
         ;OPTIMIZER ADDED SUBROUTINE, CALLED 2 TIMES
          SUBOPT_0x5F:
001590 e3e4      	LDI  R30,LOW(_Ki)
001591 e0f0      	LDI  R31,HIGH(_Ki)
001592 93fa      	ST   -Y,R31
001593 93ea      	ST   -Y,R30
001594 e6e4      	LDI  R30,LOW(100)
001595 e0f0      	LDI  R31,HIGH(100)
001596 93fa      	ST   -Y,R31
001597 93ea      	ST   -Y,R30
001598 ece8      	LDI  R30,LOW(200)
001599 e0f0      	LDI  R31,HIGH(200)
00159a 93fa      	ST   -Y,R31
00159b 93ea      	ST   -Y,R30
00159c 940c 01e9 	JMP  _gran_ee
         
         ;OPTIMIZER ADDED SUBROUTINE, CALLED 2 TIMES
          SUBOPT_0x60:
00159e 93ea      	ST   -Y,R30
00159f 940e 11b6 	CALL __lcd_write_data
0015a1 940c 119d 	JMP  __lcd_ready
         
         ;OPTIMIZER ADDED SUBROUTINE, CALLED 3 TIMES
          SUBOPT_0x61:
0015a3 940e 122a 	CALL __long_delay
0015a5 e3e0      	LDI  R30,LOW(48)
0015a6 93ea      	ST   -Y,R30
0015a7 940c 11b6 	JMP  __lcd_write_data
         
         ;OPTIMIZER ADDED SUBROUTINE, CALLED 3 TIMES
          SUBOPT_0x62:
0015a9 93ea      	ST   -Y,R30
0015aa 940e 11b6 	CALL __lcd_write_data
0015ac e0e2      	LDI  R30,LOW(2)
0015ad e0f0      	LDI  R31,HIGH(2)
0015ae 93fa      	ST   -Y,R31
0015af 93ea      	ST   -Y,R30
0015b0 940c 15ba 	JMP  _delay_ms
         
          _abs:
0015b2 91e9      	ld   r30,y+
0015b3 91f9      	ld   r31,y+
0015b4 9730      	sbiw r30,0
0015b5 f41a      	brpl __abs0
0015b6 95e0      	com  r30
0015b7 95f0      	com  r31
0015b8 9631      	adiw r30,1
          __abs0:
0015b9 9508      	ret
         
          _delay_ms:
0015ba 91e9      	ld   r30,y+
0015bb 91f9      	ld   r31,y+
0015bc 9630      	adiw r30,0
0015bd f039      	breq __delay_ms1
          __delay_ms0:
0015be   +  	__DELAY_USW 0x7D0
0015c2 95a8      	wdr
0015c3 9731      	sbiw r30,1
0015c4 f7c9      	brne __delay_ms0
          __delay_ms1:
0015c5 9508      	ret
         
          __ADDD12:
0015c6 0fea      	ADD  R30,R26
0015c7 1ffb      	ADC  R31,R27
0015c8 1f68      	ADC  R22,R24
0015c9 1f79      	ADC  R23,R25
0015ca 9508      	RET
         
          __SUBD12:
0015cb 1bea      	SUB  R30,R26
0015cc 0bfb      	SBC  R31,R27
0015cd 0b68      	SBC  R22,R24
0015ce 0b79      	SBC  R23,R25
0015cf 9508      	RET
         
          __ANEGW1:
0015d0 95e0      	COM  R30
0015d1 95f0      	COM  R31
0015d2 9631      	ADIW R30,1
0015d3 9508      	RET
         
          __ANEGD1:
0015d4 95e0      	COM  R30
0015d5 95f0      	COM  R31
0015d6 9560      	COM  R22
0015d7 9570      	COM  R23
0015d8 5fef      	SUBI R30,-1
0015d9 4fff      	SBCI R31,-1
0015da 4f6f      	SBCI R22,-1
0015db 4f7f      	SBCI R23,-1
0015dc 9508      	RET
         
          __LSLW3:
0015dd 0fee      	LSL  R30
0015de 1fff      	ROL  R31
          __LSLW2:
0015df 0fee      	LSL  R30
0015e0 1fff      	ROL  R31
0015e1 0fee      	LSL  R30
0015e2 1fff      	ROL  R31
0015e3 9508      	RET
         
          __LSRW4:
0015e4 95f6      	LSR  R31
0015e5 95e7      	ROR  R30
          __LSRW3:
0015e6 95f6      	LSR  R31
0015e7 95e7      	ROR  R30
          __LSRW2:
0015e8 95f6      	LSR  R31
0015e9 95e7      	ROR  R30
0015ea 95f6      	LSR  R31
0015eb 95e7      	ROR  R30
0015ec 9508      	RET
         
          __CWD1:
0015ed e060      	LDI  R22,0
0015ee e070      	LDI  R23,0
0015ef fff7      	SBRS R31,7
0015f0 9508      	RET
0015f1 ef6f      	SER  R22
0015f2 ef7f      	SER  R23
0015f3 9508      	RET
         
          __MULW12U:
0015f4 9ffa      	MUL  R31,R26
0015f5 2df0      	MOV  R31,R0
0015f6 9feb      	MUL  R30,R27
0015f7 0df0      	ADD  R31,R0
0015f8 9fea      	MUL  R30,R26
0015f9 2de0      	MOV  R30,R0
0015fa 0df1      	ADD  R31,R1
0015fb 9508      	RET
         
          __MULD12U:
0015fc 9f7a      	MUL  R23,R26
0015fd 2d70      	MOV  R23,R0
0015fe 9f6b      	MUL  R22,R27
0015ff 0d70      	ADD  R23,R0
001600 9ff8      	MUL  R31,R24
001601 0d70      	ADD  R23,R0
001602 9fe9      	MUL  R30,R25
001603 0d70      	ADD  R23,R0
001604 9f6a      	MUL  R22,R26
001605 2d60      	MOV  R22,R0
001606 0d71      	ADD  R23,R1
001607 9ffb      	MUL  R31,R27
001608 0d60      	ADD  R22,R0
001609 1d71      	ADC  R23,R1
00160a 9fe8      	MUL  R30,R24
00160b 0d60      	ADD  R22,R0
00160c 1d71      	ADC  R23,R1
00160d 2788      	CLR  R24
00160e 9ffa      	MUL  R31,R26
00160f 2df0      	MOV  R31,R0
001610 0d61      	ADD  R22,R1
001611 1f78      	ADC  R23,R24
001612 9feb      	MUL  R30,R27
001613 0df0      	ADD  R31,R0
001614 1d61      	ADC  R22,R1
001615 1f78      	ADC  R23,R24
001616 9fea      	MUL  R30,R26
001617 2de0      	MOV  R30,R0
001618 0df1      	ADD  R31,R1
001619 1f68      	ADC  R22,R24
00161a 1f78      	ADC  R23,R24
00161b 9508      	RET
         
          __MULW12:
00161c d05d      	RCALL __CHKSIGNW
00161d dfd6      	RCALL __MULW12U
00161e f40e      	BRTC __MULW121
00161f dfb0      	RCALL __ANEGW1
          __MULW121:
001620 9508      	RET
         
          __MULD12:
001621 d066      	RCALL __CHKSIGND
001622 dfd9      	RCALL __MULD12U
001623 f40e      	BRTC __MULD121
001624 dfaf      	RCALL __ANEGD1
          __MULD121:
001625 9508      	RET
         
          __DIVW21U:
001626 2400      	CLR  R0
001627 2411      	CLR  R1
001628 e190      	LDI  R25,16
          __DIVW21U1:
001629 0faa      	LSL  R26
00162a 1fbb      	ROL  R27
00162b 1c00      	ROL  R0
00162c 1c11      	ROL  R1
00162d 1a0e      	SUB  R0,R30
00162e 0a1f      	SBC  R1,R31
00162f f418      	BRCC __DIVW21U2
001630 0e0e      	ADD  R0,R30
001631 1e1f      	ADC  R1,R31
001632 c001      	RJMP __DIVW21U3
          __DIVW21U2:
001633 60a1      	SBR  R26,1
          __DIVW21U3:
001634 959a      	DEC  R25
001635 f799      	BRNE __DIVW21U1
001636 01fd      	MOVW R30,R26
001637 01d0      	MOVW R26,R0
001638 9508      	RET
         
          __DIVW21:
001639 d040      	RCALL __CHKSIGNW
00163a dfeb      	RCALL __DIVW21U
00163b f40e      	BRTC __DIVW211
00163c df93      	RCALL __ANEGW1
          __DIVW211:
00163d 9508      	RET
         
          __DIVD21U:
00163e 933f      	PUSH R19
00163f 934f      	PUSH R20
001640 935f      	PUSH R21
001641 2400      	CLR  R0
001642 2411      	CLR  R1
001643 2733      	CLR  R19
001644 2744      	CLR  R20
001645 e250      	LDI  R21,32
          __DIVD21U1:
001646 0faa      	LSL  R26
001647 1fbb      	ROL  R27
001648 1f88      	ROL  R24
001649 1f99      	ROL  R25
00164a 1c00      	ROL  R0
00164b 1c11      	ROL  R1
00164c 1f33      	ROL  R19
00164d 1f44      	ROL  R20
00164e 1a0e      	SUB  R0,R30
00164f 0a1f      	SBC  R1,R31
001650 0b36      	SBC  R19,R22
001651 0b47      	SBC  R20,R23
001652 f428      	BRCC __DIVD21U2
001653 0e0e      	ADD  R0,R30
001654 1e1f      	ADC  R1,R31
001655 1f36      	ADC  R19,R22
001656 1f47      	ADC  R20,R23
001657 c001      	RJMP __DIVD21U3
          __DIVD21U2:
001658 60a1      	SBR  R26,1
          __DIVD21U3:
001659 955a      	DEC  R21
00165a f759      	BRNE __DIVD21U1
00165b 01fd      	MOVW R30,R26
00165c 01bc      	MOVW R22,R24
00165d 01d0      	MOVW R26,R0
00165e 2f83      	MOV  R24,R19
00165f 2f94      	MOV  R25,R20
001660 915f      	POP  R21
001661 914f      	POP  R20
001662 913f      	POP  R19
001663 9508      	RET
         
          __DIVD21:
001664 d023      	RCALL __CHKSIGND
001665 dfd8      	RCALL __DIVD21U
001666 f40e      	BRTC __DIVD211
001667 df6c      	RCALL __ANEGD1
          __DIVD211:
001668 9508      	RET
         
          __MODW21U:
001669 dfbc      	RCALL __DIVW21U
00166a 01fd      	MOVW R30,R26
00166b 9508      	RET
         
          __MODW21:
00166c 94e8      	CLT
00166d ffb7      	SBRS R27,7
00166e c004      	RJMP __MODW211
00166f 95a0      	COM  R26
001670 95b0      	COM  R27
001671 9611      	ADIW R26,1
001672 9468      	SET
          __MODW211:
001673 fdf7      	SBRC R31,7
001674 df5b      	RCALL __ANEGW1
001675 dfb0      	RCALL __DIVW21U
001676 01fd      	MOVW R30,R26
001677 f40e      	BRTC __MODW212
001678 df57      	RCALL __ANEGW1
          __MODW212:
001679 9508      	RET
         
          __CHKSIGNW:
00167a 94e8      	CLT
00167b fff7      	SBRS R31,7
00167c c002      	RJMP __CHKSW1
00167d df52      	RCALL __ANEGW1
00167e 9468      	SET
          __CHKSW1:
00167f ffb7      	SBRS R27,7
001680 c006      	RJMP __CHKSW2
001681 95a0      	COM  R26
001682 95b0      	COM  R27
001683 9611      	ADIW R26,1
001684 f800      	BLD  R0,0
001685 9403      	INC  R0
001686 fa00      	BST  R0,0
          __CHKSW2:
001687 9508      	RET
         
          __CHKSIGND:
001688 94e8      	CLT
001689 ff77      	SBRS R23,7
00168a c002      	RJMP __CHKSD1
00168b df48      	RCALL __ANEGD1
00168c 9468      	SET
          __CHKSD1:
00168d ff97      	SBRS R25,7
00168e c00b      	RJMP __CHKSD2
00168f 2400      	CLR  R0
001690 95a0      	COM  R26
001691 95b0      	COM  R27
001692 9580      	COM  R24
001693 9590      	COM  R25
001694 9611      	ADIW R26,1
001695 1d80      	ADC  R24,R0
001696 1d90      	ADC  R25,R0
001697 f800      	BLD  R0,0
001698 9403      	INC  R0
001699 fa00      	BST  R0,0
          __CHKSD2:
00169a 9508      	RET
         
          __GETW1P:
00169b 91ed      	LD   R30,X+
00169c 91fc      	LD   R31,X
00169d 9711      	SBIW R26,1
00169e 9508      	RET
         
          __GETW1PF:
00169f 9005      	LPM  R0,Z+
0016a0 91f4      	LPM  R31,Z
0016a1 2de0      	MOV  R30,R0
0016a2 9508      	RET
         
          __SWAPD12:
0016a3 2e18      	MOV  R1,R24
0016a4 2f86      	MOV  R24,R22
0016a5 2d61      	MOV  R22,R1
0016a6 2e19      	MOV  R1,R25
0016a7 2f97      	MOV  R25,R23
0016a8 2d71      	MOV  R23,R1
         
          __SWAPW12:
0016a9 2e1b      	MOV  R1,R27
0016aa 2fbf      	MOV  R27,R31
0016ab 2df1      	MOV  R31,R1
         
          __SWAPB12:
0016ac 2e1a      	MOV  R1,R26
0016ad 2fae      	MOV  R26,R30
0016ae 2de1      	MOV  R30,R1
0016af 9508      	RET
         
          __EEPROMRDW:
0016b0 9611      	ADIW R26,1
0016b1 d002      	RCALL __EEPROMRDB
0016b2 2ffe      	MOV  R31,R30
0016b3 9711      	SBIW R26,1
         
          __EEPROMRDB:
0016b4 99e1      	SBIC EECR,EEWE
0016b5 cffe      	RJMP __EEPROMRDB
0016b6 93ff      	PUSH R31
0016b7 b7ff      	IN   R31,SREG
0016b8 94f8      	CLI
0016b9 bbae      	OUT  EEARL,R26
0016ba bbbf      	OUT  EEARH,R27
0016bb 9ae0      	SBI  EECR,EERE
0016bc b3ed      	IN   R30,EEDR
0016bd bfff      	OUT  SREG,R31
0016be 91ff      	POP  R31
0016bf 9508      	RET
         
          __EEPROMWRW:
0016c0 d007      	RCALL __EEPROMWRB
0016c1 9611      	ADIW R26,1
0016c2 93ef      	PUSH R30
0016c3 2fef      	MOV  R30,R31
0016c4 d003      	RCALL __EEPROMWRB
0016c5 91ef      	POP  R30
0016c6 9711      	SBIW R26,1
0016c7 9508      	RET
         
          __EEPROMWRB:
0016c8 99e1      	SBIC EECR,EEWE
0016c9 cffe      	RJMP __EEPROMWRB
0016ca b79f      	IN   R25,SREG
0016cb 94f8      	CLI
0016cc bbae      	OUT  EEARL,R26
0016cd bbbf      	OUT  EEARH,R27
0016ce 9ae0      	SBI  EECR,EERE
0016cf b38d      	IN   R24,EEDR
0016d0 17e8      	CP   R30,R24
0016d1 f019      	BREQ __EEPROMWRB0
0016d2 bbed      	OUT  EEDR,R30
0016d3 9ae2      	SBI  EECR,EEMWE
0016d4 9ae1      	SBI  EECR,EEWE
          __EEPROMWRB0:
0016d5 bf9f      	OUT  SREG,R25
0016d6 9508      	RET
         
          __CPD12:
0016d7 17ea      	CP   R30,R26
0016d8 07fb      	CPC  R31,R27
0016d9 0768      	CPC  R22,R24
0016da 0779      	CPC  R23,R25
0016db 9508      	RET
         
          __LSLB3:
0016dc 0fee      	LSL  R30
0016dd 0fee      	LSL  R30
0016de 0fee      	LSL  R30
0016df 9508      	RET
         
          __SAVELOCR6:
0016e0 935a      	ST   -Y,R21
          __SAVELOCR5:
0016e1 934a      	ST   -Y,R20
          __SAVELOCR4:
0016e2 933a      	ST   -Y,R19
          __SAVELOCR3:
0016e3 932a      	ST   -Y,R18
          __SAVELOCR2:
0016e4 931a      	ST   -Y,R17
0016e5 930a      	ST   -Y,R16
0016e6 9508      	RET
         
          __LOADLOCR6:
0016e7 815d      	LDD  R21,Y+5
          __LOADLOCR5:
0016e8 814c      	LDD  R20,Y+4
          __LOADLOCR4:
0016e9 813b      	LDD  R19,Y+3
          __LOADLOCR3:
0016ea 812a      	LDD  R18,Y+2
          __LOADLOCR2:
0016eb 8119      	LDD  R17,Y+1
0016ec 8108      	LD   R16,Y
0016ed 9508      	RET
         

Assembly complete with no errors.
