;CodeVisionAVR C Compiler V1.24.1d Standard
;(C) Copyright 1998-2004 Pavel Haiduc, HP InfoTech s.r.l.
;http://www.hpinfotech.ro
;e-mail:office@hpinfotech.ro

;Chip type           : ATtiny2313
;Clock frequency     : 4,000000 MHz
;Memory model        : Tiny
;Optimize for        : Size
;(s)printf features  : int, width
;(s)scanf features   : long, width
;External SRAM size  : 0
;Data Stack size     : 32 byte(s)
;Heap size           : 0 byte(s)
;Promote char to int : No
;char is unsigned    : Yes
;8 bit enums         : Yes
;Enhanced core instructions    : On
;Automatic register allocation : On

	.EQU UDRE=0x5
	.EQU RXC=0x7
	.EQU USR=0xB
	.EQU UDR=0xC
	.EQU EERE=0x0
	.EQU EEWE=0x1
	.EQU EEMWE=0x2
	.EQU EECR=0x1C
	.EQU EEDR=0x1D
	.EQU EEARL=0x1E
	.EQU WDTCR=0x21
	.EQU MCUSR=0x34
	.EQU MCUCR=0x35
	.EQU SPL=0x3D
	.EQU SREG=0x3F
	.EQU GPIOR0=0x13
	.EQU GPIOR1=0x14
	.EQU GPIOR2=0x15

	.DEF R0X0=R0
	.DEF R0X1=R1
	.DEF R0X2=R2
	.DEF R0X3=R3
	.DEF R0X4=R4
	.DEF R0X5=R5
	.DEF R0X6=R6
	.DEF R0X7=R7
	.DEF R0X8=R8
	.DEF R0X9=R9
	.DEF R0XA=R10
	.DEF R0XB=R11
	.DEF R0XC=R12
	.DEF R0XD=R13
	.DEF R0XE=R14
	.DEF R0XF=R15
	.DEF R0X10=R16
	.DEF R0X11=R17
	.DEF R0X12=R18
	.DEF R0X13=R19
	.DEF R0X14=R20
	.DEF R0X15=R21
	.DEF R0X16=R22
	.DEF R0X17=R23
	.DEF R0X18=R24
	.DEF R0X19=R25
	.DEF R0X1A=R26
	.DEF R0X1B=R27
	.DEF R0X1C=R28
	.DEF R0X1D=R29
	.DEF R0X1E=R30
	.DEF R0X1F=R31

	.EQU __se_bit=0x20
	.EQU __sm_mask=0x50
	.EQU __sm_powerdown=0x10
	.EQU __sm_standby=0x40

	.MACRO __CPD1N
	CPI  R30,LOW(@0)
	LDI  R26,HIGH(@0)
	CPC  R31,R26
	LDI  R26,BYTE3(@0)
	CPC  R22,R26
	LDI  R26,BYTE4(@0)
	CPC  R23,R26
	.ENDM

	.MACRO __CPD2N
	CPI  R26,LOW(@0)
	LDI  R30,HIGH(@0)
	CPC  R27,R30
	LDI  R30,BYTE3(@0)
	CPC  R24,R30
	LDI  R30,BYTE4(@0)
	CPC  R25,R30
	.ENDM

	.MACRO __CPWRR
	CP   R@0,R@2
	CPC  R@1,R@3
	.ENDM

	.MACRO __CPWRN
	CPI  R@0,LOW(@2)
	LDI  R30,HIGH(@2)
	CPC  R@1,R30
	.ENDM

	.MACRO __ADDD1N
	SUBI R30,LOW(-@0)
	SBCI R31,HIGH(-@0)
	SBCI R22,BYTE3(-@0)
	SBCI R23,BYTE4(-@0)
	.ENDM

	.MACRO __ADDD2N
	SUBI R26,LOW(-@0)
	SBCI R27,HIGH(-@0)
	SBCI R24,BYTE3(-@0)
	SBCI R25,BYTE4(-@0)
	.ENDM

	.MACRO __SUBD1N
	SUBI R30,LOW(@0)
	SBCI R31,HIGH(@0)
	SBCI R22,BYTE3(@0)
	SBCI R23,BYTE4(@0)
	.ENDM

	.MACRO __SUBD2N
	SUBI R26,LOW(@0)
	SBCI R27,HIGH(@0)
	SBCI R24,BYTE3(@0)
	SBCI R25,BYTE4(@0)
	.ENDM

	.MACRO __ANDD1N
	ANDI R30,LOW(@0)
	ANDI R31,HIGH(@0)
	ANDI R22,BYTE3(@0)
	ANDI R23,BYTE4(@0)
	.ENDM

	.MACRO __ORD1N
	ORI  R30,LOW(@0)
	ORI  R31,HIGH(@0)
	ORI  R22,BYTE3(@0)
	ORI  R23,BYTE4(@0)
	.ENDM

	.MACRO __DELAY_USB
	LDI  R24,LOW(@0)
__DELAY_USB_LOOP:
	DEC  R24
	BRNE __DELAY_USB_LOOP
	.ENDM

	.MACRO __DELAY_USW
	LDI  R24,LOW(@0)
	LDI  R25,HIGH(@0)
__DELAY_USW_LOOP:
	SBIW R24,1
	BRNE __DELAY_USW_LOOP
	.ENDM

	.MACRO __CLRD1S
	LDI  R30,0
	STD  Y+@0,R30
	STD  Y+@0+1,R30
	STD  Y+@0+2,R30
	STD  Y+@0+3,R30
	.ENDM

	.MACRO __GETD1S
	LDD  R30,Y+@0
	LDD  R31,Y+@0+1
	LDD  R22,Y+@0+2
	LDD  R23,Y+@0+3
	.ENDM

	.MACRO __PUTD1S
	STD  Y+@0,R30
	STD  Y+@0+1,R31
	STD  Y+@0+2,R22
	STD  Y+@0+3,R23
	.ENDM

	.MACRO __POINTB1MN
	LDI  R30,LOW(@0+@1)
	.ENDM

	.MACRO __POINTW1MN
	LDI  R30,LOW(@0+@1)
	LDI  R31,HIGH(@0+@1)
	.ENDM

	.MACRO __POINTW1FN
	LDI  R30,LOW(2*@0+@1)
	LDI  R31,HIGH(2*@0+@1)
	.ENDM

	.MACRO __POINTB2MN
	LDI  R26,LOW(@0+@1)
	.ENDM

	.MACRO __POINTW2MN
	LDI  R26,LOW(@0+@1)
	LDI  R27,HIGH(@0+@1)
	.ENDM

	.MACRO __POINTBRM
	LDI  R@0,LOW(@1)
	.ENDM

	.MACRO __POINTWRM
	LDI  R@0,LOW(@2)
	LDI  R@1,HIGH(@2)
	.ENDM

	.MACRO __POINTBRMN
	LDI  R@0,LOW(@1+@2)
	.ENDM

	.MACRO __POINTWRMN
	LDI  R@0,LOW(@2+@3)
	LDI  R@1,HIGH(@2+@3)
	.ENDM

	.MACRO __GETD1N
	LDI  R30,LOW(@0)
	LDI  R31,HIGH(@0)
	LDI  R22,BYTE3(@0)
	LDI  R23,BYTE4(@0)
	.ENDM

	.MACRO __GETD2N
	LDI  R26,LOW(@0)
	LDI  R27,HIGH(@0)
	LDI  R24,BYTE3(@0)
	LDI  R25,BYTE4(@0)
	.ENDM

	.MACRO __GETD2S
	LDD  R26,Y+@0
	LDD  R27,Y+@0+1
	LDD  R24,Y+@0+2
	LDD  R25,Y+@0+3
	.ENDM

	.MACRO __GETB1MN
	LDS  R30,@0+@1
	.ENDM

	.MACRO __GETW1MN
	LDS  R30,@0+@1
	LDS  R31,@0+@1+1
	.ENDM

	.MACRO __GETD1MN
	LDS  R30,@0+@1
	LDS  R31,@0+@1+1
	LDS  R22,@0+@1+2
	LDS  R23,@0+@1+3
	.ENDM

	.MACRO __GETBRMN
	LDS  R@2,@0+@1
	.ENDM

	.MACRO __GETWRMN
	LDS  R@2,@0+@1
	LDS  R@3,@0+@1+1
	.ENDM

	.MACRO __GETB2MN
	LDS  R26,@0+@1
	.ENDM

	.MACRO __GETW2MN
	LDS  R26,@0+@1
	LDS  R27,@0+@1+1
	.ENDM

	.MACRO __GETD2MN
	LDS  R26,@0+@1
	LDS  R27,@0+@1+1
	LDS  R24,@0+@1+2
	LDS  R25,@0+@1+3
	.ENDM

	.MACRO __PUTB1MN
	STS  @0+@1,R30
	.ENDM

	.MACRO __PUTW1MN
	STS  @0+@1,R30
	STS  @0+@1+1,R31
	.ENDM

	.MACRO __PUTD1MN
	STS  @0+@1,R30
	STS  @0+@1+1,R31
	STS  @0+@1+2,R22
	STS  @0+@1+3,R23
	.ENDM

	.MACRO __PUTBMRN
	STS  @0+@1,R@2
	.ENDM

	.MACRO __PUTWMRN
	STS  @0+@1,R@2
	STS  @0+@1+1,R@3
	.ENDM

	.MACRO __GETW1R
	MOV  R30,R@0
	MOV  R31,R@1
	.ENDM

	.MACRO __GETW2R
	MOV  R26,R@0
	MOV  R27,R@1
	.ENDM

	.MACRO __GETWRN
	LDI  R@0,LOW(@2)
	LDI  R@1,HIGH(@2)
	.ENDM

	.MACRO __PUTW1R
	MOV  R@0,R30
	MOV  R@1,R31
	.ENDM

	.MACRO __PUTW2R
	MOV  R@0,R26
	MOV  R@1,R27
	.ENDM

	.MACRO __ADDWRN
	SUBI R@0,LOW(-@2)
	SBCI R@1,HIGH(-@2)
	.ENDM

	.MACRO __ADDWRR
	ADD  R@0,R@2
	ADC  R@1,R@3
	.ENDM

	.MACRO __SUBWRN
	SUBI R@0,LOW(@2)
	SBCI R@1,HIGH(@2)
	.ENDM

	.MACRO __SUBWRR
	SUB  R@0,R@2
	SBC  R@1,R@3
	.ENDM

	.MACRO __ANDWRN
	ANDI R@0,LOW(@2)
	ANDI R@1,HIGH(@2)
	.ENDM

	.MACRO __ANDWRR
	AND  R@0,R@2
	AND  R@1,R@3
	.ENDM

	.MACRO __ORWRN
	ORI  R@0,LOW(@2)
	ORI  R@1,HIGH(@2)
	.ENDM

	.MACRO __ORWRR
	OR   R@0,R@2
	OR   R@1,R@3
	.ENDM

	.MACRO __EORWRR
	EOR  R@0,R@2
	EOR  R@1,R@3
	.ENDM

	.MACRO __GETWRS
	LDD  R@0,Y+@2
	LDD  R@1,Y+@2+1
	.ENDM

	.MACRO __PUTWSR
	STD  Y+@2,R@0
	STD  Y+@2+1,R@1
	.ENDM

	.MACRO __MOVEWRR
	MOV  R@0,R@2
	MOV  R@1,R@3
	.ENDM

	.MACRO __INWR
	IN   R@0,@2
	IN   R@1,@2+1
	.ENDM

	.MACRO __OUTWR
	OUT  @2+1,R@1
	OUT  @2,R@0
	.ENDM

	.MACRO __CALL1MN
	LDS  R30,@0+@1
	LDS  R31,@0+@1+1
	ICALL
	.ENDM

	.MACRO __NBST
	BST  R@0,@1
	IN   R30,SREG
	LDI  R31,0x40
	EOR  R30,R31
	OUT  SREG,R30
	.ENDM


	.MACRO __PUTB1SN
	LDD  R26,Y+@0
	SUBI R26,-@1
	ST   X,R30
	.ENDM

	.MACRO __PUTW1SN
	LDD  R26,Y+@0
	SUBI R26,-@1
	ST   X+,R30
	ST   X,R31
	.ENDM

	.MACRO __PUTD1SN
	LDD  R26,Y+@0
	SUBI R26,-@1
	RCALL __PUTDP1
	.ENDM

	.MACRO __PUTB1SNS
	LDD  R26,Y+@0
	SUBI R26,-@1
	ST   X,R30
	.ENDM

	.MACRO __PUTW1SNS
	LDD  R26,Y+@0
	SUBI R26,-@1
	ST   X+,R30
	ST   X,R31
	.ENDM

	.MACRO __PUTD1SNS
	LDD  R26,Y+@0
	SUBI R26,-@1
	RCALL __PUTDP1
	.ENDM

	.MACRO __PUTB1RN
	MOV  R26,R@0
	SUBI R26,-@1
	ST   X,R30
	.ENDM

	.MACRO __PUTW1RN
	MOV  R26,R@0
	SUBI R26,-@1
	ST   X+,R30
	ST   X,R31
	.ENDM

	.MACRO __PUTD1RN
	MOV  R26,R@0
	SUBI R26,-@1
	RCALL __PUTDP1
	.ENDM

	.MACRO __PUTB1RNS
	MOV  R26,R@0
	SUBI R26,-@1
	ST   X,R30
	.ENDM

	.MACRO __PUTW1RNS
	MOV  R26,R@0
	SUBI R26,-@1
	ST   X+,R30
	ST   X,R31
	.ENDM

	.MACRO __PUTD1RNS
	MOV  R26,R@0
	SUBI R26,-@1
	RCALL __PUTDP1
	.ENDM

	.MACRO __PUTB1PMN
	LDS  R26,@0
	SUBI R26,-@1
	ST   X,R30
	.ENDM

	.MACRO __PUTW1PMN
	LDS  R26,@0
	SUBI R26,-@1
	ST   X+,R30
	ST   X,R31
	.ENDM

	.MACRO __PUTD1PMN
	LDS  R26,@0
	SUBI R26,-@1
	RCALL __PUTDP1
	.ENDM

	.MACRO __PUTB1PMNS
	LDS  R26,@0
	SUBI R26,-@1
	ST   X,R30
	.ENDM

	.MACRO __PUTW1PMNS
	LDS  R26,@0
	SUBI R26,-@1
	ST   X+,R30
	ST   X,R31
	.ENDM

	.MACRO __PUTD1PMNS
	LDS  R26,@0
	SUBI R26,-@1
	RCALL __PUTDP1
	.ENDM

	.MACRO __GETB1SX
	MOVW R30,R28
	SUBI R30,LOW(-@0)
	SBCI R31,HIGH(-@0)
	LD   R30,Z
	.ENDM

	.MACRO __GETW1SX
	MOVW R30,R28
	SUBI R30,LOW(-@0)
	SBCI R31,HIGH(-@0)
	LD   R0,Z+
	LD   R31,Z
	MOV  R30,R0
	.ENDM

	.MACRO __GETD1SX
	MOVW R30,R28
	SUBI R30,LOW(-@0)
	SBCI R31,HIGH(-@0)
	LD   R0,Z+
	LD   R1,Z+
	LD   R22,Z+
	LD   R23,Z
	MOVW R30,R0
	.ENDM

	.MACRO __GETB2SX
	MOVW R26,R28
	SUBI R26,LOW(-@0)
	SBCI R27,HIGH(-@0)
	LD   R26,X
	.ENDM

	.MACRO __GETW2SX
	MOVW R26,R28
	SUBI R26,LOW(-@0)
	SBCI R27,HIGH(-@0)
	LD   R0,X+
	LD   R27,X
	MOV  R26,R0
	.ENDM

	.MACRO __GETD2SX
	MOVW R26,R28
	SUBI R26,LOW(-@0)
	SBCI R27,HIGH(-@0)
	LD   R0,X+
	LD   R1,X+
	LD   R24,X+
	LD   R25,X
	MOVW R26,R0
	.ENDM

	.MACRO __GETBRSX
	MOVW R30,R28
	SUBI R30,LOW(-@1)
	SBCI R31,HIGH(-@1)
	LD   R@0,Z
	.ENDM

	.MACRO __GETWRSX
	MOVW R30,R28
	SUBI R30,LOW(-@2)
	SBCI R31,HIGH(-@2)
	LD   R@0,Z+
	LD   R@1,Z
	.ENDM

	.MACRO __LSLW8SX
	MOVW R30,R28
	SUBI R30,LOW(-@0)
	SBCI R31,HIGH(-@0)
	LD   R31,Z
	CLR  R30
	.ENDM

	.MACRO __PUTB1SX
	MOVW R26,R28
	SUBI R26,LOW(-@0)
	SBCI R27,HIGH(-@0)
	ST   X,R30
	.ENDM

	.MACRO __PUTW1SX
	MOVW R26,R28
	SUBI R26,LOW(-@0)
	SBCI R27,HIGH(-@0)
	ST   X+,R30
	ST   X,R31
	.ENDM

	.MACRO __PUTD1SX
	MOVW R26,R28
	SUBI R26,LOW(-@0)
	SBCI R27,HIGH(-@0)
	ST   X+,R30
	ST   X+,R31
	ST   X+,R22
	ST   X,R23
	.ENDM

	.MACRO __CLRW1SX
	MOVW R30,R28
	SUBI R30,LOW(-@0)
	SBCI R31,HIGH(-@0)
	CLR  R0
	ST   Z+,R0
	ST   Z,R0
	.ENDM

	.MACRO __CLRD1SX
	MOVW R30,R28
	SUBI R30,LOW(-@0)
	SBCI R31,HIGH(-@0)
	CLR  R0
	ST   Z+,R0
	ST   Z+,R0
	ST   Z+,R0
	ST   Z,R0
	.ENDM

	.MACRO __PUTB2SX
	MOVW R30,R28
	SUBI R30,LOW(-@0)
	SBCI R31,HIGH(-@0)
	ST   Z,R26
	.ENDM

	.MACRO __PUTW2SX
	MOVW R30,R28
	SUBI R30,LOW(-@0)
	SBCI R31,HIGH(-@0)
	ST   Z+,R26
	ST   Z,R27
	.ENDM

	.MACRO __PUTBSRX
	MOVW R30,R28
	SUBI R30,LOW(-@0)
	SBCI R31,HIGH(-@0)
	ST   Z,R@1
	.ENDM

	.MACRO __PUTWSRX
	MOVW R30,R28
	SUBI R30,LOW(-@2)
	SBCI R31,HIGH(-@2)
	ST   Z+,R@0
	ST   Z,R@1
	.ENDM

	.MACRO __PUTB1SNX
	MOVW R26,R28
	SUBI R26,LOW(-@0)
	SBCI R27,HIGH(-@0)
	LD   R0,X+
	LD   R27,X
	MOV  R26,R0
	SUBI R26,LOW(-@1)
	SBCI R27,HIGH(-@1)
	ST   X,R30
	.ENDM

	.MACRO __PUTW1SNX
	MOVW R26,R28
	SUBI R26,LOW(-@0)
	SBCI R27,HIGH(-@0)
	LD   R0,X+
	LD   R27,X
	MOV  R26,R0
	SUBI R26,LOW(-@1)
	SBCI R27,HIGH(-@1)
	ST   X+,R30
	ST   X,R31
	.ENDM

	.MACRO __PUTD1SNX
	MOVW R26,R28
	SUBI R26,LOW(-@0)
	SBCI R27,HIGH(-@0)
	LD   R0,X+
	LD   R27,X
	MOV  R26,R0
	SUBI R26,LOW(-@1)
	SBCI R27,HIGH(-@1)
	ST   X+,R30
	ST   X+,R31
	ST   X+,R22
	ST   X,R23
	.ENDM

	.MACRO __MULBRR
	MULS R@0,R@1
	MOV  R30,R0
	.ENDM

	.MACRO __MULBRRU
	MUL  R@0,R@1
	MOV  R30,R0
	.ENDM

	.CSEG
	.ORG 0

	.INCLUDE "gavt9_2313.vec"
	.INCLUDE "gavt9_2313.inc"

__RESET:
	CLI
	CLR  R30
	OUT  EECR,R30
	OUT  MCUCR,R30

;DISABLE WATCHDOG
	LDI  R31,0x18
	IN   R26,MCUSR
	OUT  MCUSR,R30
	OUT  WDTCR,R31
	OUT  WDTCR,R30
	OUT  MCUSR,R26

;CLEAR R2-R14
	LDI  R24,13
	LDI  R26,2
__CLEAR_REG:
	ST   X+,R30
	DEC  R24
	BRNE __CLEAR_REG

;CLEAR SRAM
	LDI  R24,LOW(0x80)
	LDI  R26,0x60
__CLEAR_SRAM:
	ST   X+,R30
	DEC  R24
	BRNE __CLEAR_SRAM

;GLOBAL VARIABLES INITIALIZATION
	LDI  R30,LOW(__GLOBAL_INI_TBL*2)
	LDI  R31,HIGH(__GLOBAL_INI_TBL*2)
__GLOBAL_INI_NEXT:
	LPM  R24,Z+
	LPM  R25,Z+
	SBIW R24,0
	BREQ __GLOBAL_INI_END
	LPM  R26,Z+
	LPM  R27,Z+
	LPM  R0,Z+
	LPM  R1,Z+
	MOVW R22,R30
	MOVW R30,R0
__GLOBAL_INI_LOOP:
	LPM  R0,Z+
	ST   X+,R0
	SBIW R24,1
	BRNE __GLOBAL_INI_LOOP
	MOVW R30,R22
	RJMP __GLOBAL_INI_NEXT
__GLOBAL_INI_END:

;GPIOR0-GPIOR2 INITIALIZATION
	LDI  R30,__GPIOR0_INIT
	OUT  GPIOR0,R30
	LDI  R30,__GPIOR1_INIT
	OUT  GPIOR1,R30
	LDI  R30,__GPIOR2_INIT
	OUT  GPIOR2,R30

;STACK POINTER INITIALIZATION
	LDI  R30,LOW(0xDF)
	OUT  SPL,R30

;DATA STACK POINTER INITIALIZATION
	LDI  R28,LOW(0x80)
	LDI  R29,HIGH(0x80)

	RJMP _main

	.ESEG
	.ORG 0
	.DB  0 ; FIRST EEPROM LOCATION NOT USED, SEE ATMEL ERRATA SHEETS

	.DSEG
	.ORG 0x80
;       1 //Программа для платы индикации "Пакетик полуавтомат"(3 задержки)
;       2 
;       3 #include <90s2313.h>
;       4 #include <delay.h>
;       5 #include <stdio.h>
;       6 
;       7 
;       8 
;       9 #define but_on	 25
;      10 #define on	 0
;      11 #define off	 1
;      12 
;      13 
;      14 bit b100Hz;
;      15 bit b10Hz;
;      16 bit b5Hz;
;      17 bit b1Hz;
;      18 bit bFL;
;      19 bit bZ;
;      20 bit speed=0;
;      21 
;      22 char t0_cnt,t0_cnt0,t0_cnt1,t0_cnt2,t0_cnt3;
;      23 char ind_cnt;
;      24 char ind_out[5];
_ind_out:
	.BYTE 0x5
;      25 char dig[4];
_dig:
	.BYTE 0x4
;      26 flash char STROB[]={0b11111011,0b11110111,0b11101111,0b11011111,0b10111111,0b11111111};

	.CSEG
;      27 flash char DIGISYM[]={0b01001000,0b01111011,0b00101100,0b00101001,0b00011011,0b10001001,0b10001000,0b01101011,0b00001000,0b00001001,0b11111111};								
;      28 						
;      29 
;      30 char but_pr_LD_if,but_pr_LD_get,but_pr_imp_v,delay,but_pr_CAN_vozb;

	.DSEG
_but_pr_CAN_vozb:
	.BYTE 0x1
;      31 bit n_but_LD_if,n_but_LD_get,n_but_imp_v,delay_on,n_but_CAN_vozb;
;      32 int cnt;
_cnt:
	.BYTE 0x2
;      33 int ccc1,ccc2,ccc3;
_ccc1:
	.BYTE 0x2
_ccc2:
	.BYTE 0x2
_ccc3:
	.BYTE 0x2
;      34 
;      35 char but_cnt0,but_cnt1,but_cnt01;
_but_cnt0:
	.BYTE 0x1
_but_cnt1:
	.BYTE 0x1
_but_cnt01:
	.BYTE 0x1
;      36 bit b0,b0L,b1,b1L,b01,b01L;
;      37 
;      38 int in_cnt,main_cnt;
_in_cnt:
	.BYTE 0x2
_main_cnt:
	.BYTE 0x2
;      39 //-----------------------------------------------
;      40 void t0_init(void)
;      41 {

	.CSEG
_t0_init:
;      42 TCCR0=0x03;
	LDI  R30,LOW(3)
	OUT  0x33,R30
;      43 TCNT0=-62;
	LDI  R30,LOW(194)
	OUT  0x32,R30
;      44 } 
	RET
;      45 
;      46 //-----------------------------------------------
;      47 void port_init(void)
;      48 {
;      49 PORTB=0x1B;
;      50 DDRB=0x1F;
;      51 
;      52 
;      53 PORTD=0x7B;
;      54 DDRD=0x6F;
;      55 } 
;      56 
;      57 
;      58 //***********************************************
;      59 //***********************************************
;      60 //***********************************************
;      61 //***********************************************
;      62 interrupt [TIM0_OVF] void timer0_ovf_isr(void)
;      63 {
_timer0_ovf_isr:
	ST   -Y,R0
	ST   -Y,R1
	ST   -Y,R15
	ST   -Y,R22
	ST   -Y,R23
	ST   -Y,R24
	ST   -Y,R25
	ST   -Y,R26
	ST   -Y,R27
	ST   -Y,R30
	ST   -Y,R31
	IN   R30,SREG
	ST   -Y,R30
;      64 t0_init();
	RCALL _t0_init
;      65 if(++t0_cnt>=20) 
	INC  R5
	LDI  R30,LOW(20)
	CP   R5,R30
	BRLO _0x3
;      66 	{
;      67 	t0_cnt=0;
	CLR  R5
;      68 	b100Hz=1;
	SBI  0x13,0
;      69 	if(++t0_cnt0>=10)
	INC  R6
	LDI  R30,LOW(10)
	CP   R6,R30
	BRLO _0x4
;      70 		{
;      71 		t0_cnt0=0;
	CLR  R6
;      72 		b10Hz=1;
	SBI  0x13,1
;      73 
;      74 		} 
;      75 	if(++t0_cnt1>=20)
_0x4:
	INC  R7
	LDI  R30,LOW(20)
	CP   R7,R30
	BRLO _0x5
;      76 		{
;      77 		t0_cnt1=0;
	CLR  R7
;      78 		b5Hz=1;
	SBI  0x13,2
;      79      	bFL=!bFL;
	CLT
	SBIS 0x13,4
	SET
	IN   R30,0x13
	BLD  R30,4
	OUT  0x13,R30
;      80 		}
;      81 	if(++t0_cnt2>=100)
_0x5:
	INC  R8
	LDI  R30,LOW(100)
	CP   R8,R30
	BRLO _0x6
;      82 		{
;      83 		t0_cnt2=0;
	CLR  R8
;      84 		b1Hz=1;
	SBI  0x13,3
;      85 	     }
;      86 	}		
_0x6:
;      87 
;      88 }
_0x3:
	LD   R30,Y+
	OUT  SREG,R30
	LD   R31,Y+
	LD   R30,Y+
	LD   R27,Y+
	LD   R26,Y+
	LD   R25,Y+
	LD   R24,Y+
	LD   R23,Y+
	LD   R22,Y+
	LD   R15,Y+
	LD   R1,Y+
	LD   R0,Y+
	RETI
;      89 
;      90 //===============================================
;      91 //===============================================
;      92 //===============================================
;      93 //===============================================
;      94 void main(void)
;      95 {
_main:
;      96 
;      97 t0_init();
	RCALL _t0_init
;      98 
;      99 main_cnt=30;
	LDI  R30,LOW(30)
	LDI  R31,HIGH(30)
	STS  _main_cnt,R30
	STS  _main_cnt+1,R31
;     100 
;     101 #asm("sei")
	sei
;     102 
;     103 
;     104 while (1)
_0x7:
;     105 	{
;     106 	if(b100Hz)
	SBIS 0x13,0
	RJMP _0xA
;     107 		{
;     108 		b100Hz=0;
	CBI  0x13,0
;     109 
;     110 		if(!PIND.6)
	SBIC 0x10,6
	RJMP _0xB
;     111 			{
;     112 			if(in_cnt<5)
	RCALL SUBOPT_0x0
	BRGE _0xC
;     113 				{
;     114 				in_cnt++;
	LDS  R30,_in_cnt
	LDS  R31,_in_cnt+1
	ADIW R30,1
	STS  _in_cnt,R30
	STS  _in_cnt+1,R31
;     115 				if(in_cnt==5)
	RCALL SUBOPT_0x0
	BRNE _0xD
;     116 					{
;     117 					main_cnt=0;
	LDI  R30,0
	STS  _main_cnt,R30
	STS  _main_cnt+1,R30
;     118 					}          
;     119 				}
_0xD:
;     120 			}
_0xC:
;     121 		else
	RJMP _0xE
_0xB:
;     122 			{
;     123 			in_cnt=0;
	LDI  R30,0
	STS  _in_cnt,R30
	STS  _in_cnt+1,R30
;     124 			}			
_0xE:
;     125 			
;     126 			
;     127 		DDRD.6=0;
	CBI  0x11,6
;     128 		PORTD.6=1; 
	SBI  0x12,6
;     129 
;     130 		}             
;     131 	if(b10Hz)
_0xA:
	SBIS 0x13,1
	RJMP _0xF
;     132 		{
;     133 		b10Hz=0; 
	CBI  0x13,1
;     134 		
;     135 		DDRD|=0b00110000;
	RCALL SUBOPT_0x1
;     136           if(main_cnt<30)main_cnt++;
	LDS  R26,_main_cnt
	LDS  R27,_main_cnt+1
	CPI  R26,LOW(0x1E)
	LDI  R30,HIGH(0x1E)
	CPC  R27,R30
	BRGE _0x10
	LDS  R30,_main_cnt
	LDS  R31,_main_cnt+1
	ADIW R30,1
	STS  _main_cnt,R30
	STS  _main_cnt+1,R31
;     137           if((main_cnt>0)&&(main_cnt<=13))
_0x10:
	LDS  R26,_main_cnt
	LDS  R27,_main_cnt+1
	RCALL __CPW02
	BRGE _0x12
	RCALL SUBOPT_0x2
	BRGE _0x13
_0x12:
	RJMP _0x11
_0x13:
;     138           	{
;     139           	PORTD.5=1;
	SBI  0x12,5
;     140           	}
;     141           else PORTD.5=0;
	RJMP _0x14
_0x11:
	CBI  0x12,5
_0x14:
;     142           
;     143           if((main_cnt>5)&&(main_cnt<=13))
	LDS  R26,_main_cnt
	LDS  R27,_main_cnt+1
	LDI  R30,LOW(5)
	LDI  R31,HIGH(5)
	CP   R30,R26
	CPC  R31,R27
	BRGE _0x16
	RCALL SUBOPT_0x2
	BRGE _0x17
_0x16:
	RJMP _0x15
_0x17:
;     144           	{
;     145           	PORTD.4=1;
	SBI  0x12,4
;     146           	}
;     147           else PORTD.4=0;          	
	RJMP _0x18
_0x15:
	CBI  0x12,4
_0x18:
;     148           
;     149 		}
;     150 	if(b5Hz)
_0xF:
	SBIS 0x13,2
	RJMP _0x19
;     151 		{
;     152 		b5Hz=0;
	CBI  0x13,2
;     153 		} 
;     154     	if(b1Hz)
_0x19:
	SBIS 0x13,3
	RJMP _0x1A
;     155 		{
;     156 		b1Hz=0;
	CBI  0x13,3
;     157 
;     158 	DDRD|=0b00110000;
	RCALL SUBOPT_0x1
;     159 	PORTD.5=!PORTD.5;
	CLT
	SBIS 0x12,5
	SET
	IN   R30,0x12
	BLD  R30,5
	OUT  0x12,R30
;     160 		}
;     161      #asm("wdr")	
_0x1A:
	wdr
;     162 	}
	RJMP _0x7
;     163 }
_0x1B:
	RJMP _0x1B
_getchar:
     sbis usr,rxc
     rjmp _getchar
     in   r30,udr
	RET
_putchar:
     sbis usr,udre
     rjmp _putchar
     ld   r30,y
     out  udr,r30
	ADIW R28,1
	RET

;OPTIMIZER ADDED SUBROUTINE, CALLED 2 TIMES
SUBOPT_0x0:
	LDS  R26,_in_cnt
	LDS  R27,_in_cnt+1
	CPI  R26,LOW(0x5)
	LDI  R30,HIGH(0x5)
	CPC  R27,R30
	RET

;OPTIMIZER ADDED SUBROUTINE, CALLED 2 TIMES
SUBOPT_0x1:
	IN   R30,0x11
	ORI  R30,LOW(0x30)
	OUT  0x11,R30
	RET

;OPTIMIZER ADDED SUBROUTINE, CALLED 2 TIMES
SUBOPT_0x2:
	LDS  R26,_main_cnt
	LDS  R27,_main_cnt+1
	LDI  R30,LOW(13)
	LDI  R31,HIGH(13)
	CP   R30,R26
	CPC  R31,R27
	RET

__CPW02:
	CLR  R0
	CP   R0,R26
	CPC  R0,R27
	RET

